(dp1
S'IS_VERTICAL'
p2
I01
sS'CODE2CID'
p3
(dp4
I32
I1
sI33
I2
sI34
I3
sI35
I4
sI36
I5
sI37
I6
sI38
I7
sI39
I8
sI40
I9
sI41
I10
sI42
I11
sI43
I12
sI44
I13
sI45
I14
sI46
I15
sI47
I16
sI48
I17
sI49
I18
sI50
I19
sI51
I20
sI52
I21
sI53
I22
sI54
I23
sI55
I24
sI56
I25
sI57
I26
sI58
I27
sI59
I28
sI60
I29
sI61
I30
sI62
I31
sI63
I32
sI64
I33
sI65
I34
sI66
I35
sI67
I36
sI68
I37
sI69
I38
sI70
I39
sI71
I40
sI72
I41
sI73
I42
sI74
I43
sI75
I44
sI76
I45
sI77
I46
sI78
I47
sI79
I48
sI80
I49
sI81
I50
sI82
I51
sI83
I52
sI84
I53
sI85
I54
sI86
I55
sI87
I56
sI88
I57
sI89
I58
sI90
I59
sI91
I60
sI92
I61
sI93
I62
sI94
I63
sI95
I64
sI96
I65
sI97
I66
sI98
I67
sI99
I68
sI100
I69
sI101
I70
sI102
I71
sI103
I72
sI104
I73
sI105
I74
sI106
I75
sI107
I76
sI108
I77
sI109
I78
sI110
I79
sI111
I80
sI112
I81
sI113
I82
sI114
I83
sI115
I84
sI116
I85
sI117
I86
sI118
I87
sI119
I88
sI120
I89
sI121
I90
sI122
I91
sI123
I92
sI124
I93
sI125
I94
sI126
I95
sI128
I61
sI161
(dp5
I64
I99
sI65
I100
sI66
I101
sI67
I102
sI68
I103
sI69
I104
sI70
I105
sI71
I106
sI72
I107
sI73
I108
sI74
I109
sI75
I13646
sI76
I111
sI77
I112
sI78
I113
sI79
I114
sI80
I115
sI81
I116
sI82
I117
sI83
I118
sI84
I119
sI85
I120
sI86
I121
sI87
I122
sI88
I123
sI90
I13743
sI92
I13745
sI93
I130
sI94
I131
sI97
I134
sI98
I135
sI101
I138
sI102
I139
sI105
I142
sI106
I143
sI109
I146
sI110
I147
sI113
I150
sI114
I151
sI117
I154
sI118
I155
sI121
I158
sI122
I159
sI125
I160
sI126
I161
sI161
I162
sI162
I163
sI163
I164
sI164
I165
sI165
I166
sI166
I167
sI167
I168
sI168
I169
sI169
I170
sI170
I171
sI171
I172
sI172
I173
sI173
I174
sI174
I175
sI175
I176
sI176
I177
sI177
I178
sI178
I179
sI179
I180
sI180
I181
sI181
I182
sI182
I183
sI183
I184
sI184
I185
sI185
I186
sI186
I187
sI187
I188
sI188
I189
sI189
I190
sI190
I191
sI191
I192
sI192
I193
sI193
I194
sI194
I195
sI195
I196
sI196
I197
sI197
I198
sI198
I199
sI199
I200
sI200
I201
sI201
I202
sI202
I203
sI203
I204
sI204
I205
sI205
I206
sI206
I207
sI207
I208
sI208
I209
sI209
I210
sI210
I211
sI211
I212
sI212
I213
sI213
I214
sI214
I215
sI215
I216
sI216
I217
sI217
I218
sI218
I219
sI219
I220
sI220
I221
sI221
I222
sI222
I223
sI223
I224
sI224
I225
sI225
I226
sI226
I227
sI227
I13647
sI228
I229
sI229
I230
sI230
I231
sI231
I232
sI232
I233
sI233
I234
sI234
I235
sI235
I236
sI236
I237
sI237
I238
sI238
I239
sI239
I240
sI240
I241
sI241
I242
sI242
I243
sI243
I244
sI244
I245
sI245
I246
sI246
I248
sI247
I247
sI248
I249
sI249
I250
sI250
I251
sI251
I252
sI252
I253
sI253
I254
sI254
I255
ssI162
(dp6
I64
I256
sI65
I257
sI66
I258
sI67
I259
sI68
I260
sI69
I261
sI70
I262
sI71
I263
sI72
I264
sI73
I265
sI74
I266
sI75
I267
sI76
I268
sI77
I269
sI78
I270
sI79
I271
sI80
I272
sI81
I273
sI82
I274
sI83
I275
sI84
I276
sI85
I277
sI86
I278
sI87
I279
sI88
I280
sI89
I281
sI90
I282
sI91
I283
sI92
I284
sI93
I285
sI94
I286
sI95
I287
sI96
I288
sI97
I289
sI98
I290
sI99
I291
sI100
I292
sI101
I293
sI102
I294
sI103
I295
sI104
I296
sI105
I297
sI106
I298
sI107
I299
sI108
I300
sI109
I301
sI110
I302
sI111
I303
sI112
I304
sI113
I305
sI114
I306
sI115
I307
sI116
I308
sI117
I309
sI118
I310
sI119
I311
sI120
I312
sI121
I313
sI122
I314
sI123
I315
sI124
I316
sI125
I317
sI126
I318
sI161
I319
sI162
I320
sI163
I321
sI164
I322
sI165
I323
sI166
I324
sI167
I325
sI168
I326
sI169
I327
sI170
I328
sI171
I329
sI172
I330
sI173
I331
sI174
I332
sI175
I333
sI176
I334
sI177
I335
sI178
I336
sI179
I337
sI180
I338
sI181
I339
sI182
I340
sI183
I341
sI184
I342
sI185
I343
sI186
I344
sI187
I345
sI188
I346
sI189
I347
sI190
I348
sI191
I349
sI192
I350
sI193
I351
sI194
I352
sI195
I353
sI196
I354
sI197
I355
sI198
I356
sI199
I357
sI200
I358
sI201
I359
sI202
I360
sI203
I361
sI204
I362
sI205
I363
sI206
I364
sI207
I365
sI208
I366
sI209
I367
sI210
I368
sI211
I369
sI212
I370
sI213
I371
sI214
I372
sI215
I373
sI216
I374
sI217
I375
sI218
I376
sI219
I377
sI220
I378
sI221
I379
sI222
I380
sI223
I381
sI224
I382
sI225
I383
sI226
I384
sI227
I385
sI228
I386
sI229
I387
sI230
I388
sI231
I389
sI232
I390
sI233
I391
sI234
I392
sI235
I393
sI236
I394
sI237
I395
sI238
I396
sI239
I397
sI240
I398
sI241
I399
sI242
I400
sI243
I401
sI244
I402
sI245
I403
sI246
I404
sI247
I405
sI248
I406
sI249
I407
sI250
I408
sI251
I409
sI252
I410
sI253
I411
sI254
I412
ssI163
(dp7
I64
I413
sI65
I414
sI66
I415
sI67
I416
sI68
I417
sI69
I418
sI70
I419
sI71
I420
sI72
I421
sI73
I422
sI74
I423
sI75
I424
sI76
I425
sI77
I426
sI78
I427
sI79
I428
sI80
I429
sI81
I430
sI82
I431
sI83
I432
sI84
I433
sI85
I434
sI86
I435
sI87
I436
sI88
I437
sI89
I438
sI90
I439
sI91
I440
sI92
I441
sI93
I442
sI94
I443
sI95
I444
sI96
I445
sI97
I446
sI98
I447
sI99
I448
sI100
I449
sI101
I450
sI102
I451
sI103
I452
sI104
I453
sI105
I454
sI106
I455
sI107
I456
sI108
I457
sI109
I458
sI110
I459
sI111
I460
sI112
I461
sI113
I462
sI114
I463
sI115
I464
sI116
I465
sI117
I466
sI118
I467
sI119
I468
sI120
I469
sI121
I470
sI122
I471
sI123
I472
sI124
I473
sI125
I474
sI126
I475
sI161
I476
sI162
I477
sI163
I478
sI164
I479
sI165
I480
sI166
I481
sI167
I482
sI168
I483
sI169
I484
sI170
I485
sI171
I486
sI172
I487
sI173
I488
sI174
I489
sI175
I490
sI176
I491
sI177
I492
sI178
I493
sI179
I494
sI180
I495
sI181
I496
sI182
I497
sI183
I498
sI184
I499
sI185
I500
sI186
I501
sI187
I502
sI189
I503
sI190
I504
sI191
I505
sI192
I562
sI193
I563
sI194
I564
sI195
I565
sI196
I566
sI197
I567
sI198
I568
sI199
I569
sI200
I570
sI201
I571
sI202
I572
sI203
I573
sI204
I574
sI205
I575
sI206
I576
sI207
I577
sI208
I578
sI209
I579
sI210
I580
sI211
I581
sI212
I582
sI213
I583
sI214
I584
sI215
I585
sI216
I586
sI217
I587
sI218
I588
sI219
I589
sI220
I590
sI221
I591
sI222
I592
sI223
I593
sI224
I594
ssI164
(dp8
I64
I595
sI65
I596
sI66
I597
sI67
I598
sI68
I599
sI69
I600
sI70
I601
sI71
I602
sI72
I603
sI73
I604
sI74
I605
sI75
I606
sI76
I607
sI77
I608
sI78
I609
sI79
I610
sI80
I611
sI81
I612
sI82
I613
sI83
I614
sI84
I615
sI85
I616
sI86
I617
sI87
I618
sI88
I619
sI89
I620
sI90
I621
sI91
I622
sI92
I623
sI93
I624
sI94
I625
sI95
I626
sI96
I627
sI97
I628
sI98
I629
sI99
I630
sI100
I631
sI101
I632
sI102
I633
sI103
I634
sI104
I635
sI105
I636
sI106
I637
sI107
I638
sI108
I639
sI109
I640
sI110
I641
sI111
I642
sI112
I643
sI113
I644
sI114
I645
sI115
I646
sI116
I647
sI117
I648
sI118
I649
sI119
I650
sI120
I651
sI121
I652
sI122
I653
sI123
I654
sI124
I655
sI125
I656
sI126
I657
sI161
I658
sI162
I659
sI163
I660
sI164
I661
sI165
I662
sI166
I663
sI167
I664
sI168
I665
sI169
I666
sI170
I667
sI171
I668
sI172
I669
sI173
I670
sI174
I671
sI175
I672
sI176
I673
sI177
I674
sI178
I675
sI179
I676
sI180
I677
sI181
I678
sI182
I679
sI183
I680
sI184
I681
sI185
I682
sI186
I683
sI187
I684
sI188
I685
sI189
I686
sI190
I687
sI191
I688
sI192
I689
sI193
I690
sI194
I691
sI195
I692
sI196
I693
sI197
I694
sI198
I695
sI199
I696
sI200
I697
sI201
I698
sI202
I699
sI203
I700
sI204
I701
sI205
I702
sI206
I703
sI207
I704
sI208
I705
sI209
I706
sI210
I707
sI211
I708
sI212
I709
sI213
I710
sI214
I711
sI215
I712
sI216
I713
sI217
I714
sI218
I715
sI219
I716
sI220
I717
sI221
I718
sI222
I719
sI223
I720
sI224
I721
sI225
I722
sI226
I723
sI227
I724
sI228
I725
sI229
I726
sI230
I727
sI231
I728
sI232
I729
sI233
I730
sI234
I731
sI235
I732
sI236
I733
sI237
I734
sI238
I735
sI239
I736
sI240
I737
sI241
I738
sI242
I739
sI243
I740
sI244
I741
sI245
I742
sI246
I743
sI247
I744
sI248
I745
sI249
I746
sI250
I747
sI251
I748
sI252
I749
sI253
I750
sI254
I751
ssI165
(dp9
I64
I752
sI65
I753
sI66
I754
sI67
I755
sI68
I756
sI69
I757
sI70
I758
sI71
I759
sI72
I760
sI73
I761
sI74
I762
sI75
I763
sI76
I764
sI77
I765
sI78
I766
sI79
I767
sI80
I768
sI81
I769
sI82
I770
sI83
I771
sI84
I772
sI85
I773
sI86
I774
sI87
I775
sI88
I776
sI89
I777
sI90
I778
sI91
I779
sI92
I780
sI93
I781
sI94
I782
sI95
I783
sI96
I784
sI97
I785
sI98
I786
sI99
I787
sI100
I788
sI101
I789
sI102
I790
sI103
I791
sI104
I792
sI105
I793
sI106
I794
sI107
I795
sI108
I796
sI109
I797
sI110
I798
sI111
I799
sI112
I800
sI113
I801
sI114
I802
sI115
I803
sI116
I804
sI117
I805
sI118
I806
sI119
I807
sI120
I808
sI121
I809
sI122
I810
sI123
I811
sI124
I812
sI125
I813
sI126
I814
sI161
I815
sI162
I816
sI163
I817
sI164
I818
sI165
I819
sI166
I820
sI167
I821
sI168
I822
sI169
I823
sI170
I824
sI171
I825
sI172
I826
sI173
I827
sI174
I828
sI175
I829
sI176
I830
sI177
I831
sI178
I832
sI179
I833
sI180
I834
sI181
I835
sI182
I836
sI183
I837
sI184
I838
sI185
I839
sI186
I840
sI187
I841
sI188
I842
sI189
I843
sI190
I844
sI191
I845
sI192
I846
sI193
I847
sI194
I848
sI195
I849
sI196
I850
sI197
I851
sI198
I852
sI199
I853
sI200
I854
sI201
I855
sI202
I856
sI203
I857
sI204
I858
sI205
I859
sI206
I860
sI207
I861
sI208
I862
sI209
I863
sI210
I864
sI211
I865
sI212
I866
sI213
I867
sI214
I868
sI215
I869
sI216
I870
sI217
I871
sI218
I872
sI219
I873
sI220
I874
sI221
I875
sI222
I876
sI223
I877
sI224
I878
sI225
I879
sI226
I880
sI227
I881
sI228
I882
sI229
I883
sI230
I884
sI231
I885
sI232
I886
sI233
I887
sI234
I888
sI235
I889
sI236
I890
sI237
I891
sI238
I892
sI239
I893
sI240
I894
sI241
I895
sI242
I896
sI243
I897
sI244
I898
sI245
I899
sI246
I900
sI247
I901
sI248
I902
sI249
I903
sI250
I904
sI251
I905
sI252
I906
sI253
I907
sI254
I908
ssI166
(dp10
I64
I909
sI65
I910
sI66
I911
sI67
I912
sI68
I913
sI69
I914
sI70
I915
sI71
I916
sI72
I917
sI73
I918
sI74
I919
sI75
I920
sI76
I921
sI77
I922
sI78
I923
sI79
I924
sI80
I925
sI81
I926
sI82
I927
sI83
I928
sI84
I929
sI85
I930
sI86
I931
sI87
I932
sI88
I933
sI89
I934
sI90
I935
sI91
I936
sI92
I937
sI93
I938
sI94
I939
sI95
I940
sI96
I941
sI97
I942
sI98
I943
sI99
I944
sI100
I945
sI101
I946
sI102
I947
sI103
I948
sI104
I949
sI105
I950
sI106
I951
sI107
I952
sI108
I953
sI109
I954
sI110
I955
sI111
I956
sI112
I957
sI113
I958
sI114
I959
sI115
I960
sI116
I961
sI117
I962
sI118
I963
sI119
I964
sI120
I965
sI121
I966
sI122
I967
sI123
I968
sI124
I969
sI125
I970
sI126
I971
sI161
I972
sI162
I973
sI163
I974
sI164
I975
sI165
I976
sI166
I977
sI167
I978
sI168
I979
sI169
I980
sI170
I981
sI171
I982
sI172
I983
sI173
I984
sI174
I985
sI175
I986
sI176
I987
sI177
I988
sI178
I989
sI179
I990
sI180
I991
sI181
I992
sI182
I993
sI183
I994
sI184
I995
sI185
I996
sI186
I997
sI187
I998
sI188
I999
sI189
I1000
sI190
I1001
sI191
I1002
sI192
I1003
sI193
I1004
sI194
I1005
sI195
I1006
sI196
I1007
sI197
I1008
sI198
I1009
sI199
I1010
sI200
I1011
sI201
I1012
sI202
I1013
sI203
I1014
sI204
I1015
sI205
I1016
sI206
I1017
sI207
I1018
sI208
I1019
sI209
I1020
sI210
I1021
sI211
I1022
sI212
I1023
sI213
I1024
sI214
I1025
sI215
I1026
sI216
I1027
sI217
I1028
sI218
I1029
sI219
I1030
sI220
I1031
sI221
I1032
sI222
I1033
sI223
I1034
sI224
I1035
sI225
I1036
sI226
I1037
sI227
I1038
sI228
I1039
sI229
I1040
sI230
I1041
sI231
I1042
sI232
I1043
sI233
I1044
sI234
I1045
sI235
I1046
sI236
I1047
sI237
I1048
sI238
I1049
sI239
I1050
sI240
I1051
sI241
I1052
sI242
I1053
sI243
I1054
sI244
I1055
sI245
I1056
sI246
I1057
sI247
I1058
sI248
I1059
sI249
I1060
sI250
I1061
sI251
I1062
sI252
I1063
sI253
I1064
sI254
I1065
ssI167
(dp11
I64
I1066
sI65
I1067
sI66
I1068
sI67
I1069
sI68
I1070
sI69
I1071
sI70
I1072
sI71
I1073
sI72
I1074
sI73
I1075
sI74
I1076
sI75
I1077
sI76
I1078
sI77
I1079
sI78
I1080
sI79
I1081
sI80
I1082
sI81
I1083
sI82
I1084
sI83
I1085
sI84
I1086
sI85
I1087
sI86
I1088
sI87
I1089
sI88
I1090
sI89
I1091
sI90
I1092
sI91
I1093
sI92
I1094
sI93
I1095
sI94
I1096
sI95
I1097
sI96
I1098
sI97
I1099
sI98
I1100
sI99
I1101
sI100
I1102
sI101
I1103
sI102
I1104
sI103
I1105
sI104
I1106
sI105
I1107
sI106
I1108
sI107
I1109
sI108
I1110
sI109
I1111
sI110
I1112
sI111
I1113
sI112
I1114
sI113
I1115
sI114
I1116
sI115
I1117
sI116
I1118
sI117
I1119
sI118
I1120
sI119
I1121
sI120
I1122
sI121
I1123
sI122
I1124
sI123
I1125
sI124
I1126
sI125
I1127
sI126
I1128
sI161
I1129
sI162
I1130
sI163
I1131
sI164
I1132
sI165
I1133
sI166
I1134
sI167
I1135
sI168
I1136
sI169
I1137
sI170
I1138
sI171
I1139
sI172
I1140
sI173
I1141
sI174
I1142
sI175
I1143
sI176
I1144
sI177
I1145
sI178
I1146
sI179
I1147
sI180
I1148
sI181
I1149
sI182
I1150
sI183
I1151
sI184
I1152
sI185
I1153
sI186
I1154
sI187
I1155
sI188
I1156
sI189
I1157
sI190
I1158
sI191
I1159
sI192
I1160
sI193
I1161
sI194
I1162
sI195
I1163
sI196
I1164
sI197
I1165
sI198
I1166
sI199
I1167
sI200
I1168
sI201
I1169
sI202
I1170
sI203
I1171
sI204
I1172
sI205
I1173
sI206
I1174
sI207
I1175
sI208
I1176
sI209
I1177
sI210
I1178
sI211
I1179
sI212
I1180
sI213
I1181
sI214
I1182
sI215
I1183
sI216
I1184
sI217
I1185
sI218
I1186
sI219
I1187
sI220
I1188
sI221
I1189
sI222
I1190
sI223
I1191
sI224
I1192
sI225
I1193
sI226
I1194
sI227
I1195
sI228
I1196
sI229
I1197
sI230
I1198
sI231
I1199
sI232
I1200
sI233
I1201
sI234
I1202
sI235
I1203
sI236
I1204
sI237
I1205
sI238
I1206
sI239
I1207
sI240
I1208
sI241
I1209
sI242
I1210
sI243
I1211
sI244
I1212
sI245
I1213
sI246
I1214
sI247
I1215
sI248
I1216
sI249
I1217
sI250
I1218
sI251
I1219
sI252
I1220
sI253
I1221
sI254
I1222
ssI168
(dp12
I64
I1223
sI65
I1224
sI66
I1225
sI67
I1226
sI68
I1227
sI69
I1228
sI70
I1229
sI71
I1230
sI72
I1231
sI73
I1232
sI74
I1233
sI75
I1234
sI76
I1235
sI77
I1236
sI78
I1237
sI79
I1238
sI80
I1239
sI81
I1240
sI82
I1241
sI83
I1242
sI84
I1243
sI85
I1244
sI86
I1245
sI87
I1246
sI88
I1247
sI89
I1248
sI90
I1249
sI91
I1250
sI92
I1251
sI93
I1252
sI94
I1253
sI95
I1254
sI96
I1255
sI97
I1256
sI98
I1257
sI99
I1258
sI100
I1259
sI101
I1260
sI102
I1261
sI103
I1262
sI104
I1263
sI105
I1264
sI106
I1265
sI107
I1266
sI108
I1267
sI109
I1268
sI110
I1269
sI111
I1270
sI112
I1271
sI113
I1272
sI114
I1273
sI115
I1274
sI116
I1275
sI117
I1276
sI118
I1277
sI119
I1278
sI120
I1279
sI121
I1280
sI122
I1281
sI123
I1282
sI124
I1283
sI125
I1284
sI126
I1285
sI161
I1286
sI162
I1287
sI163
I1288
sI164
I1289
sI165
I1290
sI166
I1291
sI167
I1292
sI168
I1293
sI169
I1294
sI170
I1295
sI171
I1296
sI172
I1297
sI173
I1298
sI174
I1299
sI175
I1300
sI176
I1301
sI177
I1302
sI178
I1303
sI179
I1304
sI180
I1305
sI181
I1306
sI182
I1307
sI183
I1308
sI184
I1309
sI185
I1310
sI186
I1311
sI187
I1312
sI188
I1313
sI189
I1314
sI190
I1315
sI191
I1316
sI192
I1317
sI193
I1318
sI194
I1319
sI195
I1320
sI196
I1321
sI197
I1322
sI198
I1323
sI199
I1324
sI200
I1325
sI201
I1326
sI202
I1327
sI203
I1328
sI204
I1329
sI205
I1330
sI206
I1331
sI207
I1332
sI208
I1333
sI209
I1334
sI210
I1335
sI211
I1336
sI212
I1337
sI213
I1338
sI214
I1339
sI215
I1340
sI216
I1341
sI217
I1342
sI218
I1343
sI219
I1344
sI220
I1345
sI221
I1346
sI222
I1347
sI223
I1348
sI224
I1349
sI225
I1350
sI226
I1351
sI227
I1352
sI228
I1353
sI229
I1354
sI230
I1355
sI231
I1356
sI232
I1357
sI233
I1358
sI234
I1359
sI235
I1360
sI236
I1361
sI237
I1362
sI238
I1363
sI239
I1364
sI240
I1365
sI241
I1366
sI242
I1367
sI243
I1368
sI244
I1369
sI245
I1370
sI246
I1371
sI247
I1372
sI248
I1373
sI249
I1374
sI250
I1375
sI251
I1376
sI252
I1377
sI253
I1378
sI254
I1379
ssI169
(dp13
I64
I1380
sI65
I1381
sI66
I1382
sI67
I1383
sI68
I1384
sI69
I1385
sI70
I1386
sI71
I1387
sI72
I1388
sI73
I1389
sI74
I1390
sI75
I1391
sI76
I1392
sI77
I1393
sI78
I1394
sI79
I1395
sI80
I1396
sI81
I1397
sI82
I1398
sI83
I1399
sI84
I1400
sI85
I1401
sI86
I1402
sI87
I1403
sI88
I1404
sI89
I1405
sI90
I1406
sI91
I1407
sI92
I1408
sI93
I1409
sI94
I1410
sI95
I1411
sI96
I1412
sI97
I1413
sI98
I1414
sI99
I1415
sI100
I1416
sI101
I1417
sI102
I1418
sI103
I1419
sI104
I1420
sI105
I1421
sI106
I1422
sI107
I1423
sI108
I1424
sI109
I1425
sI110
I1426
sI111
I1427
sI112
I1428
sI113
I1429
sI114
I1430
sI115
I1431
sI116
I1432
sI117
I1433
sI118
I1434
sI119
I1435
sI120
I1436
sI121
I1437
sI122
I1438
sI123
I1439
sI124
I1440
sI125
I1441
sI126
I1442
sI161
I1443
sI162
I1444
sI163
I1445
sI164
I1446
sI165
I1447
sI166
I1448
sI167
I1449
sI168
I1450
sI169
I1451
sI170
I1452
sI171
I1453
sI172
I1454
sI173
I1455
sI174
I1456
sI175
I1457
sI176
I1458
sI177
I1459
sI178
I1460
sI179
I1461
sI180
I1462
sI181
I1463
sI182
I1464
sI183
I1465
sI184
I1466
sI185
I1467
sI186
I1468
sI187
I1469
sI188
I1470
sI189
I1471
sI190
I1472
sI191
I1473
sI192
I1474
sI193
I1475
sI194
I1476
sI195
I1477
sI196
I1478
sI197
I1479
sI198
I1480
sI199
I1481
sI200
I1482
sI201
I1483
sI202
I1484
sI203
I1485
sI204
I1486
sI205
I1487
sI206
I1488
sI207
I1489
sI208
I1490
sI209
I1491
sI210
I1492
sI211
I1493
sI212
I1494
sI213
I1495
sI214
I1496
sI215
I1497
sI216
I1498
sI217
I1499
sI218
I1500
sI219
I1501
sI220
I1502
sI221
I1503
sI222
I1504
sI223
I1505
sI224
I1506
sI225
I1507
sI226
I1508
sI227
I1509
sI228
I1510
sI229
I1511
sI230
I1512
sI231
I1513
sI232
I1514
sI233
I1515
sI234
I1516
sI235
I1517
sI236
I1518
sI237
I1519
sI238
I1520
sI239
I1521
sI240
I1522
sI241
I1523
sI242
I1524
sI243
I1525
sI244
I1526
sI245
I1527
sI246
I1528
sI247
I1529
sI248
I1530
sI249
I1531
sI250
I1532
sI251
I1533
sI252
I1534
sI253
I1535
sI254
I1536
ssI170
(dp14
I64
I1537
sI65
I1538
sI66
I1539
sI67
I1540
sI68
I1541
sI69
I1542
sI70
I1543
sI71
I1544
sI72
I1545
sI73
I1546
sI74
I1547
sI75
I1548
sI76
I1549
sI77
I1550
sI78
I1551
sI79
I1552
sI80
I1553
sI81
I1554
sI82
I1555
sI83
I1556
sI84
I1557
sI85
I1558
sI86
I1559
sI87
I1560
sI88
I1561
sI89
I1562
sI90
I1563
sI91
I1564
sI92
I1565
sI93
I1566
sI94
I1567
sI95
I1568
sI96
I1569
sI97
I1570
sI98
I1571
sI99
I1572
sI100
I1573
sI101
I1574
sI102
I1575
sI103
I1576
sI104
I1577
sI105
I1578
sI106
I1579
sI107
I1580
sI108
I1581
sI109
I1582
sI110
I1583
sI111
I1584
sI112
I1585
sI113
I1586
sI114
I1587
sI115
I1588
sI116
I1589
sI117
I1590
sI118
I1591
sI119
I1592
sI120
I1593
sI121
I1594
sI122
I1595
sI123
I1596
sI124
I1597
sI125
I1598
sI126
I1599
sI161
I1600
sI162
I1601
sI163
I1602
sI164
I1603
sI165
I1604
sI166
I1605
sI167
I1606
sI168
I1607
sI169
I1608
sI170
I1609
sI171
I1610
sI172
I1611
sI173
I1612
sI174
I1613
sI175
I1614
sI176
I1615
sI177
I1616
sI178
I1617
sI179
I1618
sI180
I1619
sI181
I1620
sI182
I1621
sI183
I1622
sI184
I1623
sI185
I1624
sI186
I1625
sI187
I1626
sI188
I1627
sI189
I1628
sI190
I1629
sI191
I1630
sI192
I1631
sI193
I1632
sI194
I1633
sI195
I1634
sI196
I1635
sI197
I1636
sI198
I1637
sI199
I1638
sI200
I1639
sI201
I1640
sI202
I1641
sI203
I1642
sI204
I1643
sI205
I1644
sI206
I1645
sI207
I1646
sI208
I1647
sI209
I1648
sI210
I1649
sI211
I1650
sI212
I1651
sI213
I1652
sI214
I1653
sI215
I1654
sI216
I1655
sI217
I1656
sI218
I1657
sI219
I1658
sI220
I1659
sI221
I1660
sI222
I1661
sI223
I1662
sI224
I1663
sI225
I1664
sI226
I1665
sI227
I1666
sI228
I1667
sI229
I1668
sI230
I1669
sI231
I1670
sI232
I1671
sI233
I1672
sI234
I1673
sI235
I1674
sI236
I1675
sI237
I1676
sI238
I1677
sI239
I1678
sI240
I1679
sI241
I1680
sI242
I1681
sI243
I1682
sI244
I1683
sI245
I1684
sI246
I1685
sI247
I1686
sI248
I1687
sI249
I1688
sI250
I1689
sI251
I1690
sI252
I1691
sI253
I1692
sI254
I1693
ssI171
(dp15
I64
I1694
sI65
I1695
sI66
I1696
sI67
I1697
sI68
I1698
sI69
I1699
sI70
I1700
sI71
I1701
sI72
I1702
sI73
I1703
sI74
I1704
sI75
I1705
sI76
I1706
sI77
I1707
sI78
I1708
sI79
I1709
sI80
I1710
sI81
I1711
sI82
I1712
sI83
I1713
sI84
I1714
sI85
I1715
sI86
I1716
sI87
I1717
sI88
I1718
sI89
I1719
sI90
I1720
sI91
I1721
sI92
I1722
sI93
I1723
sI94
I1724
sI95
I1725
sI96
I1726
sI97
I1727
sI98
I1728
sI99
I1729
sI100
I1730
sI101
I1731
sI102
I1732
sI103
I1733
sI104
I1734
sI105
I1735
sI106
I1736
sI107
I1737
sI108
I1738
sI109
I1739
sI110
I1740
sI111
I1741
sI112
I1742
sI113
I1743
sI114
I1744
sI115
I1745
sI116
I1746
sI117
I1747
sI118
I1748
sI119
I1749
sI120
I1750
sI121
I1751
sI122
I1752
sI123
I1753
sI124
I1754
sI125
I1755
sI126
I1756
sI161
I1757
sI162
I1758
sI163
I1759
sI164
I1760
sI165
I1761
sI166
I1762
sI167
I1763
sI168
I1764
sI169
I1765
sI170
I1766
sI171
I1767
sI172
I1768
sI173
I1769
sI174
I1770
sI175
I1771
sI176
I1772
sI177
I1773
sI178
I1774
sI179
I1775
sI180
I1776
sI181
I1777
sI182
I1778
sI183
I1779
sI184
I1780
sI185
I1781
sI186
I1782
sI187
I1783
sI188
I1784
sI189
I1785
sI190
I1786
sI191
I1787
sI192
I1788
sI193
I1789
sI194
I1790
sI195
I1791
sI196
I1792
sI197
I1793
sI198
I1794
sI199
I1795
sI200
I1796
sI201
I1797
sI202
I1798
sI203
I1799
sI204
I1800
sI205
I1801
sI206
I1802
sI207
I1803
sI208
I1804
sI209
I1805
sI210
I1806
sI211
I1807
sI212
I1808
sI213
I1809
sI214
I1810
sI215
I1811
sI216
I1812
sI217
I1813
sI218
I1814
sI219
I1815
sI220
I1816
sI221
I1817
sI222
I1818
sI223
I1819
sI224
I1820
sI225
I1821
sI226
I1822
sI227
I1823
sI228
I1824
sI229
I1825
sI230
I1826
sI231
I1827
sI232
I1828
sI233
I1829
sI234
I1830
sI235
I1831
sI236
I1832
sI237
I1833
sI238
I1834
sI239
I1835
sI240
I1836
sI241
I1837
sI242
I1838
sI243
I1839
sI244
I1840
sI245
I1841
sI246
I1842
sI247
I1843
sI248
I1844
sI249
I1845
sI250
I1846
sI251
I1847
sI252
I1848
sI253
I1849
sI254
I1850
ssI172
(dp16
I64
I1851
sI65
I1852
sI66
I1853
sI67
I1854
sI68
I1855
sI69
I1856
sI70
I1857
sI71
I1858
sI72
I1859
sI73
I1860
sI74
I1861
sI75
I1862
sI76
I1863
sI77
I1864
sI78
I1865
sI79
I1866
sI80
I1867
sI81
I1868
sI82
I1869
sI83
I1870
sI84
I1871
sI85
I1872
sI86
I1873
sI87
I1874
sI88
I1875
sI89
I1876
sI90
I1877
sI91
I1878
sI92
I1879
sI93
I1880
sI94
I1881
sI95
I1882
sI96
I1883
sI97
I1884
sI98
I1885
sI99
I1886
sI100
I1887
sI101
I1888
sI102
I1889
sI103
I1890
sI104
I1891
sI105
I1892
sI106
I1893
sI107
I1894
sI108
I1895
sI109
I1896
sI110
I1897
sI111
I1898
sI112
I1899
sI113
I1900
sI114
I1901
sI115
I1902
sI116
I1903
sI117
I1904
sI118
I1905
sI119
I1906
sI120
I1907
sI121
I1908
sI122
I1909
sI123
I1910
sI124
I1911
sI125
I1912
sI126
I1913
sI161
I1914
sI162
I1915
sI163
I1916
sI164
I1917
sI165
I1918
sI166
I1919
sI167
I1920
sI168
I1921
sI169
I1922
sI170
I1923
sI171
I1924
sI172
I1925
sI173
I1926
sI174
I1927
sI175
I1928
sI176
I1929
sI177
I1930
sI178
I1931
sI179
I1932
sI180
I1933
sI181
I1934
sI182
I1935
sI183
I1936
sI184
I1937
sI185
I1938
sI186
I1939
sI187
I1940
sI188
I1941
sI189
I1942
sI190
I1943
sI191
I1944
sI192
I1945
sI193
I1946
sI194
I1947
sI195
I1948
sI196
I1949
sI197
I1950
sI198
I1951
sI199
I1952
sI200
I1953
sI201
I1954
sI202
I1955
sI203
I1956
sI204
I1957
sI205
I1958
sI206
I1959
sI207
I1960
sI208
I1961
sI209
I1962
sI210
I1963
sI211
I1964
sI212
I1965
sI213
I1966
sI214
I1967
sI215
I1968
sI216
I1969
sI217
I1970
sI218
I1971
sI219
I1972
sI220
I1973
sI221
I1974
sI222
I1975
sI223
I1976
sI224
I1977
sI225
I1978
sI226
I1979
sI227
I1980
sI228
I1981
sI229
I1982
sI230
I1983
sI231
I1984
sI232
I1985
sI233
I1986
sI234
I1987
sI235
I1988
sI236
I1989
sI237
I1990
sI238
I1991
sI239
I1992
sI240
I1993
sI241
I1994
sI242
I1995
sI243
I1996
sI244
I1997
sI245
I1998
sI246
I1999
sI247
I2000
sI248
I2001
sI249
I2002
sI250
I2003
sI251
I2004
sI252
I2005
sI253
I2006
sI254
I2431
ssI173
(dp17
I64
I2007
sI65
I2008
sI66
I2009
sI67
I2010
sI68
I2011
sI69
I2012
sI70
I2013
sI71
I2014
sI72
I2015
sI73
I2016
sI74
I2017
sI75
I2018
sI76
I2019
sI77
I2020
sI78
I2021
sI79
I2022
sI80
I2023
sI81
I2024
sI82
I2025
sI83
I2026
sI84
I2027
sI85
I2028
sI86
I2029
sI87
I2030
sI88
I2031
sI89
I2032
sI90
I2033
sI91
I2034
sI92
I2035
sI93
I2036
sI94
I2037
sI95
I2038
sI96
I2039
sI97
I2040
sI98
I2041
sI99
I2042
sI100
I2043
sI101
I2044
sI102
I2045
sI103
I2046
sI104
I2047
sI105
I2048
sI106
I2049
sI107
I2050
sI108
I2051
sI109
I2052
sI110
I2053
sI111
I2054
sI112
I2055
sI113
I2056
sI114
I2057
sI115
I2058
sI116
I2059
sI117
I2060
sI118
I2061
sI119
I2062
sI120
I2063
sI121
I2064
sI122
I2065
sI123
I2066
sI124
I2067
sI125
I2068
sI126
I2069
sI161
I2070
sI162
I2071
sI163
I2072
sI164
I2073
sI165
I2074
sI166
I2075
sI167
I2076
sI168
I2077
sI169
I2078
sI170
I2079
sI171
I2080
sI172
I2081
sI173
I2082
sI174
I2083
sI175
I2084
sI176
I2085
sI177
I2086
sI178
I2087
sI179
I2088
sI180
I2089
sI181
I2090
sI182
I2091
sI183
I2092
sI184
I2093
sI185
I2094
sI186
I2095
sI187
I2096
sI188
I2097
sI189
I2098
sI190
I2099
sI191
I2100
sI192
I2101
sI193
I2102
sI194
I2103
sI195
I2104
sI196
I2105
sI197
I2106
sI198
I2107
sI199
I2108
sI200
I2109
sI201
I2110
sI202
I2111
sI203
I2112
sI204
I2113
sI205
I2114
sI206
I2115
sI207
I2116
sI208
I2117
sI209
I2118
sI210
I2119
sI211
I2120
sI212
I2121
sI213
I2122
sI214
I2123
sI215
I2124
sI216
I2125
sI217
I2126
sI218
I2127
sI219
I2128
sI220
I2129
sI221
I2130
sI222
I2131
sI223
I2132
sI224
I2133
sI225
I2134
sI226
I2135
sI227
I2136
sI228
I2137
sI229
I2138
sI230
I2139
sI231
I2140
sI232
I2141
sI233
I2142
sI234
I2143
sI235
I2144
sI236
I2145
sI237
I2146
sI238
I2147
sI239
I2148
sI240
I2149
sI241
I2150
sI242
I2151
sI243
I2152
sI244
I2153
sI245
I2154
sI246
I2155
sI247
I2156
sI248
I2157
sI249
I2158
sI250
I2159
sI251
I2160
sI252
I2161
sI253
I2162
sI254
I2163
ssI174
(dp18
I64
I2164
sI65
I2165
sI66
I2166
sI67
I2167
sI68
I2168
sI69
I2169
sI70
I2170
sI71
I2171
sI72
I2172
sI73
I2173
sI74
I2174
sI75
I2175
sI76
I2176
sI77
I2177
sI78
I2178
sI79
I2179
sI80
I2180
sI81
I2181
sI82
I2182
sI83
I2183
sI84
I2184
sI85
I2185
sI86
I2186
sI87
I2187
sI88
I2188
sI89
I2189
sI90
I2190
sI91
I2191
sI92
I2192
sI93
I2193
sI94
I2194
sI95
I2195
sI96
I2196
sI97
I2197
sI98
I2198
sI99
I2199
sI100
I2200
sI101
I2201
sI102
I2202
sI103
I2203
sI104
I2204
sI105
I2205
sI106
I2206
sI107
I2207
sI108
I2208
sI109
I2209
sI110
I2210
sI111
I2211
sI112
I2212
sI113
I2213
sI114
I2214
sI115
I2215
sI116
I2216
sI117
I2217
sI118
I2218
sI119
I2219
sI120
I2220
sI121
I2221
sI122
I2222
sI123
I2223
sI124
I2224
sI125
I2225
sI126
I2226
sI161
I2227
sI162
I2228
sI163
I2229
sI164
I2230
sI165
I2231
sI166
I2232
sI167
I2233
sI168
I2234
sI169
I2235
sI170
I2236
sI171
I2237
sI172
I2238
sI173
I2239
sI174
I2240
sI175
I2241
sI176
I2242
sI177
I2243
sI178
I2244
sI179
I2245
sI180
I2246
sI181
I2247
sI182
I2248
sI183
I2249
sI184
I2250
sI185
I2251
sI186
I2252
sI187
I2253
sI188
I2254
sI189
I2255
sI190
I2256
sI191
I2257
sI192
I2258
sI193
I2259
sI194
I2260
sI195
I2261
sI196
I2262
sI197
I2263
sI198
I2264
sI199
I2265
sI200
I2266
sI201
I2267
sI202
I2268
sI203
I2269
sI204
I2270
sI205
I2271
sI206
I2272
sI207
I2273
sI208
I2274
sI209
I2275
sI210
I2276
sI211
I2277
sI212
I2278
sI213
I2279
sI214
I2280
sI215
I2281
sI216
I2282
sI217
I2283
sI218
I2284
sI219
I2285
sI220
I2286
sI221
I2287
sI222
I2288
sI223
I2289
sI224
I2290
sI225
I2291
sI226
I2292
sI227
I2293
sI228
I2294
sI229
I2295
sI230
I2296
sI231
I2297
sI232
I2298
sI233
I2299
sI234
I2300
sI235
I2301
sI236
I2302
sI237
I2303
sI238
I2304
sI239
I2305
sI240
I2306
sI241
I2307
sI242
I2308
sI243
I2309
sI244
I2310
sI245
I2311
sI246
I2312
sI247
I2313
sI248
I2314
sI249
I2315
sI250
I2316
sI251
I2317
sI252
I2318
sI253
I2319
sI254
I2320
ssI175
(dp19
I64
I2321
sI65
I2322
sI66
I2323
sI67
I2324
sI68
I2325
sI69
I2326
sI70
I2327
sI71
I2328
sI72
I2329
sI73
I2330
sI74
I2331
sI75
I2332
sI76
I2333
sI77
I2334
sI78
I2335
sI79
I2336
sI80
I2337
sI81
I2338
sI82
I2339
sI83
I2340
sI84
I2341
sI85
I2342
sI86
I2343
sI87
I2344
sI88
I2345
sI89
I2346
sI90
I2347
sI91
I2348
sI92
I2349
sI93
I2350
sI94
I2351
sI95
I2352
sI96
I2353
sI97
I2354
sI98
I2355
sI99
I2356
sI100
I2357
sI101
I2358
sI102
I2359
sI103
I2360
sI104
I2361
sI105
I2362
sI106
I2363
sI107
I2364
sI108
I2365
sI109
I2366
sI110
I2367
sI111
I2368
sI112
I2369
sI113
I2370
sI114
I2371
sI115
I2372
sI116
I2373
sI117
I2374
sI118
I2375
sI119
I2376
sI120
I2377
sI121
I2378
sI122
I2379
sI123
I2380
sI124
I2381
sI125
I2382
sI126
I2383
sI161
I2384
sI162
I2385
sI163
I2386
sI164
I2387
sI165
I2388
sI166
I2389
sI167
I2390
sI168
I2391
sI169
I2392
sI170
I2393
sI171
I2394
sI172
I2395
sI173
I2396
sI174
I2397
sI175
I2398
sI176
I2399
sI177
I2400
sI178
I2401
sI179
I2402
sI180
I2403
sI181
I2404
sI182
I2405
sI183
I2406
sI184
I2407
sI185
I2408
sI186
I2409
sI187
I2410
sI188
I2411
sI189
I2412
sI190
I2413
sI191
I2414
sI192
I2415
sI193
I2416
sI194
I2417
sI195
I2418
sI196
I2419
sI197
I2420
sI198
I2421
sI199
I2422
sI200
I2423
sI201
I2424
sI202
I2425
sI203
I2426
sI204
I2427
sI205
I2428
sI206
I2429
sI207
I2430
sI208
I2432
sI209
I2433
sI210
I2434
sI211
I2435
sI212
I2436
sI213
I2437
sI214
I2438
sI215
I2439
sI216
I2440
sI217
I2441
sI218
I2442
sI219
I2443
sI220
I2444
sI221
I2445
sI222
I2446
sI223
I2447
sI224
I2448
sI225
I2449
sI226
I2450
sI227
I2451
sI228
I2452
sI229
I2453
sI230
I2454
sI231
I2455
sI232
I2456
sI233
I2457
sI234
I2458
sI235
I2459
sI236
I2460
sI237
I2461
sI238
I2462
sI239
I2463
sI240
I2464
sI241
I2465
sI242
I2466
sI243
I2467
sI244
I2468
sI245
I2469
sI246
I2470
sI247
I2471
sI248
I2472
sI249
I2473
sI250
I2474
sI251
I2475
sI252
I2476
sI253
I2477
sI254
I2478
ssI176
(dp20
I64
I2479
sI65
I2480
sI66
I2481
sI67
I2482
sI68
I2483
sI69
I2484
sI70
I2485
sI71
I2486
sI72
I2487
sI73
I2488
sI74
I2489
sI75
I2490
sI76
I2491
sI77
I2492
sI78
I2493
sI79
I2494
sI80
I2495
sI81
I2496
sI82
I2497
sI83
I2498
sI84
I2499
sI85
I2500
sI86
I2501
sI87
I2502
sI88
I2503
sI89
I2504
sI90
I2505
sI91
I2506
sI92
I2507
sI93
I2508
sI94
I2509
sI95
I2510
sI96
I2511
sI97
I2512
sI98
I2513
sI99
I2514
sI100
I2515
sI101
I2516
sI102
I2517
sI103
I2518
sI104
I2519
sI105
I2520
sI106
I2521
sI107
I2522
sI108
I2523
sI109
I2524
sI110
I2525
sI111
I2526
sI112
I2527
sI113
I2528
sI114
I2529
sI115
I2530
sI116
I2531
sI117
I2532
sI118
I2533
sI119
I2534
sI120
I2535
sI121
I2536
sI122
I2537
sI123
I2538
sI124
I2539
sI125
I2540
sI126
I2541
sI161
I2542
sI162
I2543
sI163
I2544
sI164
I2545
sI165
I2546
sI166
I2547
sI167
I2548
sI168
I2549
sI169
I2550
sI170
I2551
sI171
I2552
sI172
I2553
sI173
I2554
sI174
I2555
sI175
I2556
sI176
I2557
sI177
I2558
sI178
I2559
sI179
I2560
sI180
I2561
sI181
I2562
sI182
I2563
sI183
I2564
sI184
I2565
sI185
I2566
sI186
I2567
sI187
I2568
sI188
I2569
sI189
I2570
sI190
I2571
sI191
I2572
sI192
I2573
sI193
I2574
sI194
I2575
sI195
I2576
sI196
I2577
sI197
I2578
sI198
I2579
sI199
I2580
sI200
I2581
sI201
I2582
sI202
I2583
sI203
I2584
sI204
I2585
sI205
I2586
sI206
I2587
sI207
I2588
sI208
I2589
sI209
I2590
sI210
I2591
sI211
I2592
sI212
I2593
sI213
I2594
sI214
I2595
sI215
I2596
sI216
I2597
sI217
I2598
sI218
I2599
sI219
I2600
sI220
I2601
sI221
I2602
sI222
I2603
sI223
I2604
sI224
I2605
sI225
I2606
sI226
I2607
sI227
I2608
sI228
I2609
sI229
I2610
sI230
I2611
sI231
I2612
sI232
I2613
sI233
I2614
sI234
I2615
sI235
I2616
sI236
I2617
sI237
I2618
sI238
I2619
sI239
I2620
sI240
I2621
sI241
I2622
sI242
I2623
sI243
I2624
sI244
I2625
sI245
I2626
sI246
I2627
sI247
I2628
sI248
I2629
sI249
I2630
sI250
I2631
sI251
I2632
sI252
I2633
sI253
I2634
sI254
I2635
ssI177
(dp21
I64
I2636
sI65
I2637
sI66
I2638
sI67
I2639
sI68
I2640
sI69
I2641
sI70
I2642
sI71
I2643
sI72
I2644
sI73
I2645
sI74
I2646
sI75
I2647
sI76
I2648
sI77
I2649
sI78
I2650
sI79
I2651
sI80
I2652
sI81
I2653
sI82
I2654
sI83
I2655
sI84
I2656
sI85
I2657
sI86
I2658
sI87
I2659
sI88
I2660
sI89
I2661
sI90
I2662
sI91
I2663
sI92
I2664
sI93
I2665
sI94
I2666
sI95
I2667
sI96
I2668
sI97
I2669
sI98
I2670
sI99
I2671
sI100
I2672
sI101
I2673
sI102
I2674
sI103
I2675
sI104
I2676
sI105
I2677
sI106
I2678
sI107
I2679
sI108
I2680
sI109
I2681
sI110
I2682
sI111
I2683
sI112
I2684
sI113
I2685
sI114
I2686
sI115
I2687
sI116
I2688
sI117
I2689
sI118
I2690
sI119
I2691
sI120
I2692
sI121
I2693
sI122
I2694
sI123
I2695
sI124
I2696
sI125
I2697
sI126
I2698
sI161
I2699
sI162
I2700
sI163
I2701
sI164
I2702
sI165
I2703
sI166
I2704
sI167
I2705
sI168
I2706
sI169
I2707
sI170
I2708
sI171
I2709
sI172
I2710
sI173
I2711
sI174
I2712
sI175
I2713
sI176
I2714
sI177
I2715
sI178
I2716
sI179
I2717
sI180
I2718
sI181
I2719
sI182
I2720
sI183
I2721
sI184
I2722
sI185
I2723
sI186
I2724
sI187
I2725
sI188
I2726
sI189
I2727
sI190
I2728
sI191
I2729
sI192
I2730
sI193
I2731
sI194
I2732
sI195
I2733
sI196
I2734
sI197
I2735
sI198
I2736
sI199
I2737
sI200
I2738
sI201
I2739
sI202
I2740
sI203
I2741
sI204
I2742
sI205
I2743
sI206
I2744
sI207
I2745
sI208
I2746
sI209
I2747
sI210
I2748
sI211
I2749
sI212
I2750
sI213
I2751
sI214
I2752
sI215
I2753
sI216
I2754
sI217
I2755
sI218
I2756
sI219
I2757
sI220
I2758
sI221
I2759
sI222
I2760
sI223
I2761
sI224
I2762
sI225
I2763
sI226
I2764
sI227
I2765
sI228
I2766
sI229
I2767
sI230
I2768
sI231
I2769
sI232
I2770
sI233
I2771
sI234
I2772
sI235
I2773
sI236
I2774
sI237
I2775
sI238
I2776
sI239
I2777
sI240
I2778
sI241
I2779
sI242
I2780
sI243
I2781
sI244
I2782
sI245
I2783
sI246
I2784
sI247
I2785
sI248
I2786
sI249
I2787
sI250
I2788
sI251
I2789
sI252
I2790
sI253
I2791
sI254
I2792
ssI178
(dp22
I64
I2793
sI65
I2794
sI66
I2795
sI67
I2796
sI68
I2797
sI69
I2798
sI70
I2799
sI71
I2800
sI72
I2801
sI73
I2802
sI74
I2803
sI75
I2804
sI76
I2805
sI77
I2806
sI78
I2807
sI79
I2808
sI80
I2809
sI81
I2810
sI82
I2811
sI83
I2812
sI84
I2813
sI85
I2814
sI86
I2815
sI87
I2816
sI88
I2817
sI89
I2818
sI90
I2819
sI91
I2820
sI92
I2821
sI93
I2822
sI94
I2823
sI95
I2824
sI96
I2825
sI97
I2826
sI98
I2827
sI99
I2828
sI100
I2829
sI101
I2830
sI102
I2831
sI103
I2832
sI104
I2833
sI105
I2834
sI106
I2835
sI107
I2836
sI108
I2837
sI109
I2838
sI110
I2839
sI111
I2840
sI112
I2841
sI113
I2842
sI114
I2843
sI115
I2844
sI116
I2845
sI117
I2846
sI118
I2847
sI119
I2848
sI120
I2849
sI121
I2850
sI122
I2851
sI123
I2852
sI124
I2853
sI125
I2854
sI126
I2855
sI161
I2856
sI162
I2857
sI163
I2858
sI164
I2859
sI165
I2860
sI166
I2861
sI167
I2862
sI168
I2863
sI169
I2864
sI170
I2865
sI171
I2866
sI172
I2867
sI173
I2868
sI174
I2869
sI175
I2870
sI176
I2871
sI177
I2872
sI178
I2873
sI179
I2874
sI180
I2875
sI181
I2876
sI182
I2877
sI183
I2878
sI184
I2879
sI185
I2880
sI186
I2881
sI187
I2882
sI188
I2883
sI189
I2884
sI190
I2885
sI191
I2886
sI192
I2887
sI193
I2888
sI194
I2889
sI195
I2890
sI196
I2891
sI197
I2892
sI198
I2893
sI199
I2894
sI200
I2895
sI201
I2896
sI202
I2897
sI203
I2898
sI204
I2899
sI205
I2900
sI206
I2901
sI207
I2902
sI208
I2903
sI209
I2904
sI210
I2905
sI211
I2906
sI212
I2907
sI213
I2908
sI214
I2909
sI215
I2910
sI216
I2911
sI217
I2912
sI218
I2913
sI219
I2914
sI220
I2915
sI221
I2916
sI222
I2917
sI223
I2918
sI224
I2919
sI225
I2920
sI226
I2921
sI227
I2922
sI228
I2923
sI229
I2924
sI230
I2925
sI231
I2926
sI232
I2927
sI233
I2928
sI234
I2929
sI235
I2930
sI236
I2931
sI237
I2932
sI238
I2933
sI239
I2934
sI240
I2935
sI241
I2936
sI242
I2937
sI243
I2938
sI244
I2939
sI245
I2940
sI246
I2941
sI247
I2942
sI248
I2943
sI249
I2944
sI250
I2945
sI251
I2946
sI252
I2947
sI253
I2948
sI254
I2949
ssI179
(dp23
I64
I2950
sI65
I2951
sI66
I2952
sI67
I2953
sI68
I2954
sI69
I2955
sI70
I2956
sI71
I2957
sI72
I2958
sI73
I2959
sI74
I2960
sI75
I2961
sI76
I2962
sI77
I2963
sI78
I2964
sI79
I2965
sI80
I2966
sI81
I2967
sI82
I2968
sI83
I2969
sI84
I2970
sI85
I2971
sI86
I2972
sI87
I2973
sI88
I2974
sI89
I2975
sI90
I2976
sI91
I2977
sI92
I2978
sI93
I2979
sI94
I2980
sI95
I2981
sI96
I2982
sI97
I2983
sI98
I2984
sI99
I2985
sI100
I2986
sI101
I2987
sI102
I2988
sI103
I2989
sI104
I2990
sI105
I2991
sI106
I2992
sI107
I2993
sI108
I2994
sI109
I2995
sI110
I2996
sI111
I2997
sI112
I2998
sI113
I2999
sI114
I3000
sI115
I3001
sI116
I3002
sI117
I3003
sI118
I3004
sI119
I3005
sI120
I3006
sI121
I3007
sI122
I3008
sI123
I3009
sI124
I3010
sI125
I3011
sI126
I3012
sI161
I3013
sI162
I3014
sI163
I3015
sI164
I3016
sI165
I3017
sI166
I3018
sI167
I3019
sI168
I3020
sI169
I3021
sI170
I3022
sI171
I3023
sI172
I3024
sI173
I3025
sI174
I3026
sI175
I3027
sI176
I3028
sI177
I3029
sI178
I3030
sI179
I3031
sI180
I3032
sI181
I3033
sI182
I3034
sI183
I3035
sI184
I3036
sI185
I3037
sI186
I3038
sI187
I3039
sI188
I3040
sI189
I3041
sI190
I3042
sI191
I3043
sI192
I3044
sI193
I3045
sI194
I3046
sI195
I3047
sI196
I3048
sI197
I3049
sI198
I3050
sI199
I3051
sI200
I3052
sI201
I3053
sI202
I3054
sI203
I3055
sI204
I3056
sI205
I3057
sI206
I3058
sI207
I3059
sI208
I3060
sI209
I3061
sI210
I3062
sI211
I3063
sI212
I3064
sI213
I3065
sI214
I3066
sI215
I3067
sI216
I3068
sI217
I3069
sI218
I3070
sI219
I3071
sI220
I3072
sI221
I3073
sI222
I3074
sI223
I3075
sI224
I3076
sI225
I3077
sI226
I3078
sI227
I3079
sI228
I3080
sI229
I3081
sI230
I3082
sI231
I3083
sI232
I3084
sI233
I3085
sI234
I3086
sI235
I3087
sI236
I3088
sI237
I3089
sI238
I3090
sI239
I3091
sI240
I3092
sI241
I3093
sI242
I3094
sI243
I3095
sI244
I3096
sI245
I3097
sI246
I3098
sI247
I3099
sI248
I3100
sI249
I3101
sI250
I3102
sI251
I3103
sI252
I3104
sI253
I3105
sI254
I3106
ssI180
(dp24
I64
I3107
sI65
I3108
sI66
I3109
sI67
I3110
sI68
I3111
sI69
I3112
sI70
I3113
sI71
I3114
sI72
I3115
sI73
I3116
sI74
I3117
sI75
I3118
sI76
I3119
sI77
I3120
sI78
I3121
sI79
I3122
sI80
I3123
sI81
I3124
sI82
I3125
sI83
I3126
sI84
I3127
sI85
I3128
sI86
I3129
sI87
I3130
sI88
I3131
sI89
I3132
sI90
I3133
sI91
I3134
sI92
I3135
sI93
I3136
sI94
I3137
sI95
I3138
sI96
I3139
sI97
I3140
sI98
I3141
sI99
I3142
sI100
I3143
sI101
I3144
sI102
I3145
sI103
I3146
sI104
I3147
sI105
I3148
sI106
I3149
sI107
I3150
sI108
I3151
sI109
I3152
sI110
I3153
sI111
I3154
sI112
I3155
sI113
I3156
sI114
I3157
sI115
I3158
sI116
I3159
sI117
I3160
sI118
I3161
sI119
I3162
sI120
I3163
sI121
I3164
sI122
I3165
sI123
I3166
sI124
I3167
sI125
I3168
sI126
I3169
sI161
I3170
sI162
I3171
sI163
I3172
sI164
I3173
sI165
I3174
sI166
I3175
sI167
I3176
sI168
I3177
sI169
I3178
sI170
I3179
sI171
I3180
sI172
I3181
sI173
I3182
sI174
I3183
sI175
I3184
sI176
I3185
sI177
I3186
sI178
I3187
sI179
I3188
sI180
I3189
sI181
I3190
sI182
I3191
sI183
I3192
sI184
I3193
sI185
I3194
sI186
I3195
sI187
I3196
sI188
I3197
sI189
I3198
sI190
I3199
sI191
I3200
sI192
I3201
sI193
I3202
sI194
I3203
sI195
I3204
sI196
I3205
sI197
I3206
sI198
I3207
sI199
I3208
sI200
I3209
sI201
I3210
sI202
I3211
sI203
I3212
sI204
I3213
sI205
I3214
sI206
I3215
sI207
I3216
sI208
I3217
sI209
I3218
sI210
I3219
sI211
I3220
sI212
I3221
sI213
I3222
sI214
I3223
sI215
I3224
sI216
I3225
sI217
I3226
sI218
I3227
sI219
I3228
sI220
I3229
sI221
I3230
sI222
I3231
sI223
I3232
sI224
I3233
sI225
I3234
sI226
I3235
sI227
I3236
sI228
I3237
sI229
I3238
sI230
I3239
sI231
I3240
sI232
I3241
sI233
I3242
sI234
I3243
sI235
I3244
sI236
I3245
sI237
I3246
sI238
I3247
sI239
I3248
sI240
I3249
sI241
I3250
sI242
I3251
sI243
I3252
sI244
I3253
sI245
I3254
sI246
I3255
sI247
I3256
sI248
I3257
sI249
I3258
sI250
I3259
sI251
I3260
sI252
I3261
sI253
I3262
sI254
I3263
ssI181
(dp25
I64
I3264
sI65
I3265
sI66
I3266
sI67
I3267
sI68
I3268
sI69
I3269
sI70
I3270
sI71
I3271
sI72
I3272
sI73
I3273
sI74
I3274
sI75
I3275
sI76
I3276
sI77
I3277
sI78
I3278
sI79
I3279
sI80
I3280
sI81
I3281
sI82
I3282
sI83
I3283
sI84
I3284
sI85
I3285
sI86
I3286
sI87
I3287
sI88
I3288
sI89
I3289
sI90
I3290
sI91
I3291
sI92
I3292
sI93
I3293
sI94
I3294
sI95
I3295
sI96
I3296
sI97
I3297
sI98
I3298
sI99
I3299
sI100
I3300
sI101
I3301
sI102
I3302
sI103
I3303
sI104
I3304
sI105
I3305
sI106
I3306
sI107
I3307
sI108
I3308
sI109
I3309
sI110
I3310
sI111
I3311
sI112
I3312
sI113
I3313
sI114
I3314
sI115
I3315
sI116
I3316
sI117
I3317
sI118
I3318
sI119
I3319
sI120
I3320
sI121
I3321
sI122
I3322
sI123
I3323
sI124
I3324
sI125
I3325
sI126
I3326
sI161
I3327
sI162
I3328
sI163
I3329
sI164
I3330
sI165
I3331
sI166
I3332
sI167
I3333
sI168
I3334
sI169
I3335
sI170
I3336
sI171
I3337
sI172
I3338
sI173
I3339
sI174
I3340
sI175
I3341
sI176
I3342
sI177
I3343
sI178
I3344
sI179
I3345
sI180
I3346
sI181
I3347
sI182
I3348
sI183
I3349
sI184
I3350
sI185
I3351
sI186
I3352
sI187
I3353
sI188
I3354
sI189
I3355
sI190
I3356
sI191
I3357
sI192
I3358
sI193
I3359
sI194
I3360
sI195
I3361
sI196
I3362
sI197
I3363
sI198
I3364
sI199
I3365
sI200
I3366
sI201
I3367
sI202
I3368
sI203
I3369
sI204
I3370
sI205
I3371
sI206
I3372
sI207
I3373
sI208
I3374
sI209
I3375
sI210
I3376
sI211
I3377
sI212
I3378
sI213
I3379
sI214
I3380
sI215
I3381
sI216
I3382
sI217
I3383
sI218
I3384
sI219
I3385
sI220
I3386
sI221
I3387
sI222
I3388
sI223
I3389
sI224
I3390
sI225
I3391
sI226
I3392
sI227
I3393
sI228
I3394
sI229
I3395
sI230
I3396
sI231
I3397
sI232
I3398
sI233
I3399
sI234
I3400
sI235
I3401
sI236
I3402
sI237
I3403
sI238
I3404
sI239
I3405
sI240
I3406
sI241
I3407
sI242
I3408
sI243
I3409
sI244
I3410
sI245
I3411
sI246
I3412
sI247
I3413
sI248
I3414
sI249
I3415
sI250
I3416
sI251
I3417
sI252
I3418
sI253
I3419
sI254
I3420
ssI182
(dp26
I64
I3421
sI65
I3422
sI66
I3423
sI67
I3424
sI68
I3425
sI69
I3426
sI70
I3427
sI71
I3428
sI72
I3429
sI73
I3430
sI74
I3431
sI75
I3432
sI76
I3433
sI77
I3434
sI78
I3435
sI79
I3436
sI80
I3437
sI81
I3438
sI82
I3439
sI83
I3440
sI84
I3441
sI85
I3442
sI86
I3443
sI87
I3444
sI88
I3445
sI89
I3446
sI90
I3447
sI91
I3448
sI92
I3449
sI93
I3450
sI94
I3451
sI95
I3452
sI96
I3453
sI97
I3454
sI98
I3455
sI99
I3456
sI100
I3457
sI101
I3458
sI102
I3459
sI103
I3460
sI104
I3461
sI105
I3462
sI106
I3463
sI107
I3464
sI108
I3465
sI109
I3466
sI110
I3467
sI111
I3468
sI112
I3469
sI113
I3470
sI114
I3471
sI115
I3472
sI116
I3473
sI117
I3474
sI118
I3475
sI119
I3476
sI120
I3477
sI121
I3478
sI122
I3479
sI123
I3480
sI124
I3481
sI125
I3482
sI126
I3483
sI161
I3484
sI162
I3485
sI163
I3486
sI164
I3487
sI165
I3488
sI166
I3489
sI167
I3490
sI168
I3491
sI169
I3492
sI170
I3493
sI171
I3494
sI172
I3495
sI173
I3496
sI174
I3497
sI175
I3498
sI176
I3499
sI177
I3500
sI178
I3501
sI179
I3502
sI180
I3503
sI181
I3504
sI182
I3505
sI183
I3506
sI184
I3507
sI185
I3508
sI186
I3509
sI187
I3510
sI188
I3511
sI189
I3512
sI190
I3513
sI191
I3514
sI192
I3515
sI193
I3516
sI194
I3517
sI195
I3518
sI196
I3519
sI197
I3520
sI198
I3521
sI199
I3522
sI200
I3523
sI201
I3524
sI202
I3525
sI203
I3526
sI204
I3527
sI205
I3528
sI206
I3529
sI207
I3530
sI208
I3531
sI209
I3532
sI210
I3533
sI211
I3534
sI212
I3535
sI213
I3536
sI214
I3537
sI215
I3538
sI216
I3539
sI217
I3540
sI218
I3541
sI219
I3542
sI220
I3543
sI221
I3544
sI222
I3545
sI223
I3546
sI224
I3547
sI225
I3548
sI226
I3549
sI227
I3550
sI228
I3551
sI229
I3552
sI230
I3553
sI231
I3554
sI232
I3555
sI233
I3556
sI234
I3557
sI235
I3558
sI236
I3559
sI237
I3560
sI238
I3561
sI239
I3562
sI240
I3563
sI241
I3564
sI242
I3565
sI243
I3566
sI244
I3567
sI245
I3568
sI246
I3569
sI247
I3570
sI248
I3571
sI249
I3572
sI250
I3573
sI251
I3574
sI252
I3575
sI253
I3576
sI254
I3577
ssI183
(dp27
I64
I3578
sI65
I3579
sI66
I3580
sI67
I3581
sI68
I3582
sI69
I3583
sI70
I3584
sI71
I3585
sI72
I3586
sI73
I3587
sI74
I3588
sI75
I3589
sI76
I3590
sI77
I3591
sI78
I3592
sI79
I3593
sI80
I3594
sI81
I3595
sI82
I3596
sI83
I3597
sI84
I3598
sI85
I3599
sI86
I3600
sI87
I3601
sI88
I3602
sI89
I3603
sI90
I3604
sI91
I3605
sI92
I3606
sI93
I3607
sI94
I3608
sI95
I3609
sI96
I3610
sI97
I3611
sI98
I3612
sI99
I3613
sI100
I3614
sI101
I3615
sI102
I3616
sI103
I3617
sI104
I3618
sI105
I3619
sI106
I3620
sI107
I3621
sI108
I3622
sI109
I3623
sI110
I3624
sI111
I3625
sI112
I3626
sI113
I3627
sI114
I3628
sI115
I3629
sI116
I3630
sI117
I3631
sI118
I3632
sI119
I3633
sI120
I3634
sI121
I3635
sI122
I3636
sI123
I3637
sI124
I3638
sI125
I3639
sI126
I3640
sI161
I3641
sI162
I3642
sI163
I3643
sI164
I3644
sI165
I3645
sI166
I3646
sI167
I3647
sI168
I3648
sI169
I3649
sI170
I3650
sI171
I3651
sI172
I3652
sI173
I3653
sI174
I3654
sI175
I3655
sI176
I3656
sI177
I3657
sI178
I3658
sI179
I3659
sI180
I3660
sI181
I3661
sI182
I3662
sI183
I3663
sI184
I3664
sI185
I3665
sI186
I3666
sI187
I3667
sI188
I3668
sI189
I3669
sI190
I3670
sI191
I3671
sI192
I3672
sI193
I3673
sI194
I3674
sI195
I3675
sI196
I3676
sI197
I3677
sI198
I3678
sI199
I3679
sI200
I3680
sI201
I3681
sI202
I3682
sI203
I3683
sI204
I3684
sI205
I3685
sI206
I3686
sI207
I3687
sI208
I3688
sI209
I3689
sI210
I3690
sI211
I3691
sI212
I3692
sI213
I3693
sI214
I3694
sI215
I3695
sI216
I3696
sI217
I3697
sI218
I3698
sI219
I3699
sI220
I3700
sI221
I3701
sI222
I3702
sI223
I3703
sI224
I3704
sI225
I3705
sI226
I3706
sI227
I3707
sI228
I3708
sI229
I3709
sI230
I3710
sI231
I3711
sI232
I3712
sI233
I3713
sI234
I3714
sI235
I3715
sI236
I3716
sI237
I3717
sI238
I3718
sI239
I3719
sI240
I3720
sI241
I3721
sI242
I3722
sI243
I3723
sI244
I3724
sI245
I3725
sI246
I3726
sI247
I3727
sI248
I3728
sI249
I3729
sI250
I3730
sI251
I3731
sI252
I3732
sI253
I3733
sI254
I3734
ssI184
(dp28
I64
I3735
sI65
I3736
sI66
I3737
sI67
I3738
sI68
I3739
sI69
I3740
sI70
I3741
sI71
I3742
sI72
I3743
sI73
I3744
sI74
I3745
sI75
I3746
sI76
I3747
sI77
I3748
sI78
I3749
sI79
I3750
sI80
I3751
sI81
I3752
sI82
I3753
sI83
I3754
sI84
I3755
sI85
I3756
sI86
I3757
sI87
I3758
sI88
I3759
sI89
I3760
sI90
I3761
sI91
I3762
sI92
I3763
sI93
I3764
sI94
I3765
sI95
I3766
sI96
I3767
sI97
I3768
sI98
I3769
sI99
I3770
sI100
I3771
sI101
I3772
sI102
I3773
sI103
I3774
sI104
I3775
sI105
I3776
sI106
I3777
sI107
I3778
sI108
I3779
sI109
I3780
sI110
I3781
sI111
I3782
sI112
I3783
sI113
I3784
sI114
I3785
sI115
I3786
sI116
I3787
sI117
I3788
sI118
I3789
sI119
I3790
sI120
I3791
sI121
I3792
sI122
I3793
sI123
I3794
sI124
I3795
sI125
I3796
sI126
I3797
sI161
I3798
sI162
I3799
sI163
I3800
sI164
I3801
sI165
I3802
sI166
I3803
sI167
I3804
sI168
I3805
sI169
I3806
sI170
I3807
sI171
I3808
sI172
I3809
sI173
I3810
sI174
I3811
sI175
I3812
sI176
I3813
sI177
I3814
sI178
I3815
sI179
I3816
sI180
I3817
sI181
I3818
sI182
I3819
sI183
I3820
sI184
I3821
sI185
I3822
sI186
I3823
sI187
I3824
sI188
I3825
sI189
I3826
sI190
I3827
sI191
I3828
sI192
I3829
sI193
I3830
sI194
I3831
sI195
I3832
sI196
I3833
sI197
I3834
sI198
I3835
sI199
I3836
sI200
I3837
sI201
I3838
sI202
I3839
sI203
I3840
sI204
I3841
sI205
I3842
sI206
I3843
sI207
I3844
sI208
I3845
sI209
I3846
sI210
I3847
sI211
I3848
sI212
I3849
sI213
I3850
sI214
I3851
sI215
I3852
sI216
I3853
sI217
I3854
sI218
I3855
sI219
I3856
sI220
I3857
sI221
I3858
sI222
I3859
sI223
I3860
sI224
I3861
sI225
I3862
sI226
I3863
sI227
I3864
sI228
I3865
sI229
I3866
sI230
I3867
sI231
I3868
sI232
I3869
sI233
I3870
sI234
I3871
sI235
I3872
sI236
I3873
sI237
I3874
sI238
I3875
sI239
I3876
sI240
I3877
sI241
I3878
sI242
I3879
sI243
I3880
sI244
I3881
sI245
I3882
sI246
I3883
sI247
I3884
sI248
I3885
sI249
I3886
sI250
I3887
sI251
I3888
sI252
I3889
sI253
I3890
sI254
I3891
ssI185
(dp29
I64
I3892
sI65
I3893
sI66
I3894
sI67
I3895
sI68
I3896
sI69
I3897
sI70
I3898
sI71
I3899
sI72
I3900
sI73
I3901
sI74
I3902
sI75
I3903
sI76
I3904
sI77
I3905
sI78
I3906
sI79
I3907
sI80
I3908
sI81
I3909
sI82
I3910
sI83
I3911
sI84
I3912
sI85
I3913
sI86
I3914
sI87
I3915
sI88
I3916
sI89
I3917
sI90
I3918
sI91
I3919
sI92
I3920
sI93
I3921
sI94
I3922
sI95
I3923
sI96
I3924
sI97
I3925
sI98
I3926
sI99
I3927
sI100
I3928
sI101
I3929
sI102
I3930
sI103
I3931
sI104
I3932
sI105
I3933
sI106
I3934
sI107
I3935
sI108
I3936
sI109
I3937
sI110
I3938
sI111
I3939
sI112
I3940
sI113
I3941
sI114
I3942
sI115
I3943
sI116
I3944
sI117
I3945
sI118
I3946
sI119
I3947
sI120
I3948
sI121
I3949
sI122
I3950
sI123
I3951
sI124
I3952
sI125
I3953
sI126
I3954
sI161
I3955
sI162
I3956
sI163
I3957
sI164
I3958
sI165
I3959
sI166
I3960
sI167
I3961
sI168
I3962
sI169
I3963
sI170
I3964
sI171
I3965
sI172
I3966
sI173
I3967
sI174
I3968
sI175
I3969
sI176
I3970
sI177
I3971
sI178
I3972
sI179
I3973
sI180
I3974
sI181
I3975
sI182
I3976
sI183
I3977
sI184
I3978
sI185
I3979
sI186
I3980
sI187
I3981
sI188
I3982
sI189
I3983
sI190
I3984
sI191
I3985
sI192
I3986
sI193
I3987
sI194
I3988
sI195
I3989
sI196
I3990
sI197
I3991
sI198
I3992
sI199
I3993
sI200
I3994
sI201
I3995
sI202
I3996
sI203
I3997
sI204
I3998
sI205
I3999
sI206
I4000
sI207
I4001
sI208
I4002
sI209
I4003
sI210
I4004
sI211
I4005
sI212
I4006
sI213
I4007
sI214
I4008
sI215
I4009
sI216
I4010
sI217
I4011
sI218
I4012
sI219
I4013
sI220
I4014
sI221
I4015
sI222
I4016
sI223
I4017
sI224
I4018
sI225
I4019
sI226
I4020
sI227
I4021
sI228
I4022
sI229
I4023
sI230
I4024
sI231
I4025
sI232
I4026
sI233
I4027
sI234
I4028
sI235
I4029
sI236
I4030
sI237
I4031
sI238
I4032
sI239
I4033
sI240
I4034
sI241
I4035
sI242
I4036
sI243
I4037
sI244
I4038
sI245
I4039
sI246
I4040
sI247
I4041
sI248
I4042
sI249
I4043
sI250
I4044
sI251
I4045
sI252
I4046
sI253
I4047
sI254
I4048
ssI186
(dp30
I64
I4049
sI65
I4050
sI66
I4051
sI67
I4052
sI68
I4053
sI69
I4054
sI70
I4055
sI71
I4056
sI72
I4057
sI73
I4058
sI74
I4059
sI75
I4060
sI76
I4061
sI77
I4062
sI78
I4063
sI79
I4064
sI80
I4065
sI81
I4066
sI82
I4067
sI83
I4068
sI84
I4069
sI85
I4070
sI86
I4071
sI87
I4072
sI88
I4073
sI89
I4074
sI90
I4075
sI91
I4076
sI92
I4077
sI93
I4078
sI94
I4079
sI95
I4080
sI96
I4081
sI97
I4082
sI98
I4083
sI99
I4084
sI100
I4085
sI101
I4086
sI102
I4087
sI103
I4088
sI104
I4089
sI105
I4090
sI106
I4091
sI107
I4092
sI108
I4093
sI109
I4094
sI110
I4095
sI111
I4096
sI112
I4097
sI113
I4098
sI114
I4099
sI115
I4100
sI116
I4101
sI117
I4102
sI118
I4103
sI119
I4104
sI120
I4105
sI121
I4106
sI122
I4107
sI123
I4108
sI124
I4109
sI125
I4110
sI126
I4111
sI161
I4112
sI162
I4113
sI163
I4114
sI164
I4115
sI165
I4116
sI166
I4117
sI167
I4118
sI168
I4119
sI169
I4120
sI170
I4121
sI171
I4122
sI172
I4123
sI173
I4124
sI174
I4125
sI175
I4126
sI176
I4127
sI177
I4128
sI178
I4129
sI179
I4130
sI180
I4131
sI181
I4132
sI182
I4133
sI183
I4134
sI184
I4135
sI185
I4136
sI186
I4137
sI187
I4138
sI188
I4139
sI189
I4140
sI190
I4141
sI191
I4142
sI192
I4143
sI193
I4144
sI194
I4145
sI195
I4146
sI196
I4147
sI197
I4148
sI198
I4149
sI199
I4150
sI200
I4151
sI201
I4152
sI202
I4153
sI203
I4154
sI204
I4155
sI205
I4156
sI206
I4157
sI207
I4158
sI208
I4159
sI209
I4160
sI210
I4161
sI211
I4162
sI212
I4163
sI213
I4164
sI214
I4165
sI215
I4166
sI216
I4167
sI217
I4168
sI218
I4169
sI219
I4170
sI220
I4171
sI221
I4172
sI222
I4173
sI223
I4174
sI224
I4175
sI225
I4176
sI226
I4177
sI227
I4178
sI228
I4179
sI229
I4180
sI230
I4181
sI231
I4182
sI232
I4183
sI233
I4184
sI234
I4185
sI235
I4186
sI236
I4187
sI237
I4188
sI238
I4189
sI239
I4190
sI240
I4191
sI241
I4192
sI242
I4193
sI243
I4194
sI244
I4195
sI245
I4196
sI246
I4197
sI247
I4198
sI248
I4199
sI249
I4200
sI250
I4201
sI251
I4202
sI252
I4203
sI253
I4204
sI254
I4205
ssI187
(dp31
I64
I4206
sI65
I4207
sI66
I4208
sI67
I4209
sI68
I4210
sI69
I4211
sI70
I4212
sI71
I4213
sI72
I4214
sI73
I4215
sI74
I4216
sI75
I4217
sI76
I4218
sI77
I4219
sI78
I4220
sI79
I4221
sI80
I4222
sI81
I4223
sI82
I4224
sI83
I4225
sI84
I4226
sI85
I4227
sI86
I4228
sI87
I4229
sI88
I4230
sI89
I4231
sI90
I4232
sI91
I4233
sI92
I4234
sI93
I4235
sI94
I4236
sI95
I4237
sI96
I4238
sI97
I4239
sI98
I4240
sI99
I4241
sI100
I4242
sI101
I4243
sI102
I4244
sI103
I4245
sI104
I4246
sI105
I4247
sI106
I4248
sI107
I4249
sI108
I4250
sI109
I4251
sI110
I4252
sI111
I4253
sI112
I4254
sI113
I4255
sI114
I4256
sI115
I4257
sI116
I4258
sI117
I4259
sI118
I4260
sI119
I4261
sI120
I4262
sI121
I4263
sI122
I4264
sI123
I4265
sI124
I4266
sI125
I4267
sI126
I4268
sI161
I4269
sI162
I4270
sI163
I4271
sI164
I4272
sI165
I4273
sI166
I4274
sI167
I4275
sI168
I4276
sI169
I4277
sI170
I4278
sI171
I4279
sI172
I4280
sI173
I4281
sI174
I4282
sI175
I4283
sI176
I4284
sI177
I4285
sI178
I4286
sI179
I4287
sI180
I4288
sI181
I4289
sI182
I4290
sI183
I4291
sI184
I4292
sI185
I4293
sI186
I4294
sI187
I4295
sI188
I4296
sI189
I4297
sI190
I4298
sI191
I4299
sI192
I4300
sI193
I4301
sI194
I4302
sI195
I4303
sI196
I4304
sI197
I4305
sI198
I4306
sI199
I4307
sI200
I4309
sI201
I4310
sI202
I4311
sI203
I4312
sI204
I4313
sI205
I4314
sI206
I4315
sI207
I4316
sI208
I4317
sI209
I4318
sI210
I4319
sI211
I4320
sI212
I4321
sI213
I4322
sI214
I4323
sI215
I4324
sI216
I4325
sI217
I4326
sI218
I4327
sI219
I4328
sI220
I4329
sI221
I4330
sI222
I4331
sI223
I4332
sI224
I4333
sI225
I4334
sI226
I4335
sI227
I4336
sI228
I4337
sI229
I4338
sI230
I4339
sI231
I4340
sI232
I4341
sI233
I4342
sI234
I4343
sI235
I4344
sI236
I4345
sI237
I4346
sI238
I4347
sI239
I4348
sI240
I4349
sI241
I4350
sI242
I4351
sI243
I4352
sI244
I4353
sI245
I4354
sI246
I4355
sI247
I4356
sI248
I4357
sI249
I4358
sI250
I4359
sI251
I4360
sI252
I4361
sI253
I4362
sI254
I4363
ssI188
(dp32
I64
I4364
sI65
I4365
sI66
I4366
sI67
I4367
sI68
I4368
sI69
I4369
sI70
I4370
sI71
I4371
sI72
I4372
sI73
I4373
sI74
I4374
sI75
I4375
sI76
I4376
sI77
I4377
sI78
I4378
sI79
I4379
sI80
I4380
sI81
I4381
sI82
I4382
sI83
I4383
sI84
I4384
sI85
I4385
sI86
I4386
sI87
I4387
sI88
I4388
sI89
I4389
sI90
I4390
sI91
I4391
sI92
I4392
sI93
I4393
sI94
I4394
sI95
I4395
sI96
I4396
sI97
I4397
sI98
I4398
sI99
I4399
sI100
I4400
sI101
I4401
sI102
I4402
sI103
I4403
sI104
I4404
sI105
I4405
sI106
I4406
sI107
I4407
sI108
I4408
sI109
I4409
sI110
I4410
sI111
I4411
sI112
I4412
sI113
I4413
sI114
I4414
sI115
I4415
sI116
I4416
sI117
I4417
sI118
I4418
sI119
I4419
sI120
I4420
sI121
I4421
sI122
I4422
sI123
I4423
sI124
I4424
sI125
I4425
sI126
I4426
sI161
I4427
sI162
I4428
sI163
I4429
sI164
I4430
sI165
I4431
sI166
I4432
sI167
I4433
sI168
I4434
sI169
I4435
sI170
I4436
sI171
I4437
sI172
I4438
sI173
I4439
sI174
I4440
sI175
I4441
sI176
I4442
sI177
I4443
sI178
I4444
sI179
I4445
sI180
I4446
sI181
I4447
sI182
I4448
sI183
I4449
sI184
I4450
sI185
I4451
sI186
I4452
sI187
I4453
sI188
I4454
sI189
I4455
sI190
I4456
sI191
I4457
sI192
I4458
sI193
I4459
sI194
I4460
sI195
I4461
sI196
I4462
sI197
I4463
sI198
I4464
sI199
I4465
sI200
I4466
sI201
I4467
sI202
I4468
sI203
I4469
sI204
I4470
sI205
I4471
sI206
I4472
sI207
I4473
sI208
I4474
sI209
I4475
sI210
I4476
sI211
I4477
sI212
I4478
sI213
I4479
sI214
I4480
sI215
I4481
sI216
I4482
sI217
I4483
sI218
I4484
sI219
I4485
sI220
I4486
sI221
I4487
sI222
I4488
sI223
I4489
sI224
I4490
sI225
I4491
sI226
I4492
sI227
I4493
sI228
I4494
sI229
I4495
sI230
I4496
sI231
I4497
sI232
I4498
sI233
I4499
sI234
I4500
sI235
I4501
sI236
I4502
sI237
I4503
sI238
I4504
sI239
I4505
sI240
I4506
sI241
I4507
sI242
I4508
sI243
I4509
sI244
I4510
sI245
I4511
sI246
I4512
sI247
I4513
sI248
I4514
sI249
I4515
sI250
I4516
sI251
I4517
sI252
I4518
sI253
I4519
sI254
I4520
ssI189
(dp33
I64
I4521
sI65
I4522
sI66
I4523
sI67
I4524
sI68
I4525
sI69
I4526
sI70
I4527
sI71
I4528
sI72
I4529
sI73
I4530
sI74
I4531
sI75
I4532
sI76
I4533
sI77
I4534
sI78
I4535
sI79
I4536
sI80
I4537
sI81
I4538
sI82
I4539
sI83
I4540
sI84
I4541
sI85
I4542
sI86
I4543
sI87
I4544
sI88
I4545
sI89
I4546
sI90
I4547
sI91
I4548
sI92
I4549
sI93
I4550
sI94
I4551
sI95
I4552
sI96
I4553
sI97
I4554
sI98
I4555
sI99
I4556
sI100
I4557
sI101
I4558
sI102
I4559
sI103
I4560
sI104
I4561
sI105
I4562
sI106
I4563
sI107
I4564
sI108
I4565
sI109
I4566
sI110
I4567
sI111
I4568
sI112
I4569
sI113
I4570
sI114
I4571
sI115
I4572
sI116
I4573
sI117
I4574
sI118
I4575
sI119
I4576
sI120
I4577
sI121
I4578
sI122
I4579
sI123
I4580
sI124
I4581
sI125
I4582
sI126
I4583
sI161
I4584
sI162
I4585
sI163
I4586
sI164
I4587
sI165
I4588
sI166
I4589
sI167
I4590
sI168
I4591
sI169
I4592
sI170
I4593
sI171
I4594
sI172
I4595
sI173
I4596
sI174
I4597
sI175
I4598
sI176
I4599
sI177
I4600
sI178
I4601
sI179
I4602
sI180
I4603
sI181
I4604
sI182
I4605
sI183
I4606
sI184
I4607
sI185
I4608
sI186
I4609
sI187
I4610
sI188
I4611
sI189
I4612
sI190
I4613
sI191
I4614
sI192
I4615
sI193
I4616
sI194
I4617
sI195
I4618
sI196
I4619
sI197
I4620
sI198
I4621
sI199
I4622
sI200
I4623
sI201
I4624
sI202
I4625
sI203
I4626
sI204
I4627
sI205
I4628
sI206
I4629
sI207
I4630
sI208
I4631
sI209
I4632
sI210
I4633
sI211
I4634
sI212
I4635
sI213
I4636
sI214
I4637
sI215
I4638
sI216
I4639
sI217
I4640
sI218
I4641
sI219
I4642
sI220
I4643
sI221
I4644
sI222
I4645
sI223
I4646
sI224
I4647
sI225
I4648
sI226
I4649
sI227
I4650
sI228
I4651
sI229
I4652
sI230
I4653
sI231
I4654
sI232
I4655
sI233
I4656
sI234
I4657
sI235
I4658
sI236
I4659
sI237
I4660
sI238
I4661
sI239
I4662
sI240
I4663
sI241
I4664
sI242
I4665
sI243
I4666
sI244
I4667
sI245
I4668
sI246
I4669
sI247
I4670
sI248
I4671
sI249
I4672
sI250
I4673
sI251
I4674
sI252
I4675
sI253
I4676
sI254
I4677
ssI190
(dp34
I64
I4678
sI65
I4679
sI66
I4680
sI67
I4681
sI68
I4682
sI69
I4683
sI70
I4684
sI71
I4685
sI72
I4686
sI73
I4687
sI74
I4688
sI75
I4689
sI76
I4690
sI77
I4691
sI78
I4692
sI79
I4693
sI80
I4694
sI81
I4695
sI82
I4308
sI83
I4696
sI84
I4697
sI85
I4698
sI86
I4699
sI87
I4700
sI88
I4701
sI89
I4702
sI90
I4703
sI91
I4704
sI92
I4705
sI93
I4706
sI94
I4707
sI95
I4708
sI96
I4709
sI97
I4710
sI98
I4711
sI99
I4712
sI100
I4713
sI101
I4714
sI102
I4715
sI103
I4716
sI104
I4717
sI105
I4718
sI106
I4719
sI107
I4720
sI108
I4721
sI109
I4722
sI110
I4723
sI111
I4724
sI112
I4725
sI113
I4726
sI114
I4727
sI115
I4728
sI116
I4729
sI117
I4730
sI118
I4731
sI119
I4732
sI120
I4733
sI121
I4734
sI122
I4735
sI123
I4736
sI124
I4737
sI125
I4738
sI126
I4739
sI161
I4740
sI162
I4741
sI163
I4742
sI164
I4743
sI165
I4744
sI166
I4745
sI167
I4746
sI168
I4747
sI169
I4748
sI170
I4749
sI171
I4750
sI172
I4751
sI173
I4752
sI174
I4753
sI175
I4754
sI176
I4755
sI177
I4756
sI178
I4757
sI179
I4758
sI180
I4759
sI181
I4760
sI182
I4761
sI183
I4762
sI184
I4763
sI185
I4764
sI186
I4765
sI187
I4766
sI188
I4767
sI189
I4768
sI190
I4769
sI191
I4770
sI192
I4771
sI193
I4772
sI194
I4773
sI195
I4774
sI196
I4775
sI197
I4776
sI198
I4777
sI199
I4778
sI200
I4779
sI201
I4780
sI202
I4781
sI203
I4782
sI204
I4783
sI205
I4784
sI206
I4785
sI207
I4786
sI208
I4787
sI209
I4788
sI210
I4789
sI211
I4790
sI212
I4791
sI213
I4792
sI214
I4793
sI215
I4794
sI216
I4795
sI217
I4796
sI218
I4797
sI219
I4798
sI220
I4799
sI221
I4800
sI222
I4801
sI223
I4802
sI224
I4803
sI225
I4804
sI226
I4805
sI227
I4806
sI228
I4807
sI229
I4808
sI230
I4809
sI231
I4810
sI232
I4811
sI233
I4812
sI234
I4813
sI235
I4814
sI236
I4815
sI237
I4816
sI238
I4817
sI239
I4818
sI240
I4819
sI241
I4820
sI242
I4821
sI243
I4822
sI244
I4823
sI245
I4824
sI246
I4825
sI247
I4826
sI248
I4827
sI249
I4828
sI250
I4829
sI251
I4830
sI252
I4831
sI253
I4832
sI254
I4833
ssI191
(dp35
I64
I4834
sI65
I4835
sI66
I4836
sI67
I4837
sI68
I4838
sI69
I4839
sI70
I4840
sI71
I4841
sI72
I4842
sI73
I4843
sI74
I4844
sI75
I4845
sI76
I4846
sI77
I4847
sI78
I4848
sI79
I4849
sI80
I4850
sI81
I4851
sI82
I4852
sI83
I4853
sI84
I4854
sI85
I4855
sI86
I4856
sI87
I4857
sI88
I4858
sI89
I4859
sI90
I4860
sI91
I4861
sI92
I4862
sI93
I4863
sI94
I4864
sI95
I4865
sI96
I4866
sI97
I4867
sI98
I4868
sI99
I4869
sI100
I4870
sI101
I4871
sI102
I4872
sI103
I4873
sI104
I4874
sI105
I4875
sI106
I4876
sI107
I4877
sI108
I4878
sI109
I4879
sI110
I4880
sI111
I4881
sI112
I4882
sI113
I4883
sI114
I4884
sI115
I4885
sI116
I4886
sI117
I4887
sI118
I4888
sI119
I4889
sI120
I4890
sI121
I4891
sI122
I4892
sI123
I4893
sI124
I4894
sI125
I4895
sI126
I4896
sI161
I4897
sI162
I4898
sI163
I4899
sI164
I4900
sI165
I4901
sI166
I4902
sI167
I4903
sI168
I4904
sI169
I4905
sI170
I4906
sI171
I4907
sI172
I4908
sI173
I4909
sI174
I4910
sI175
I4911
sI176
I4912
sI177
I4913
sI178
I4914
sI179
I4915
sI180
I4916
sI181
I4917
sI182
I4918
sI183
I4919
sI184
I4920
sI185
I4921
sI186
I4922
sI187
I4923
sI188
I4924
sI189
I4925
sI190
I4926
sI191
I4927
sI192
I4928
sI193
I4929
sI194
I4930
sI195
I4931
sI196
I4932
sI197
I4933
sI198
I4934
sI199
I4935
sI200
I4936
sI201
I4937
sI202
I4938
sI203
I4939
sI204
I4940
sI205
I4941
sI206
I4942
sI207
I4943
sI208
I4944
sI209
I4945
sI210
I4946
sI211
I4947
sI212
I4948
sI213
I4949
sI214
I4950
sI215
I4951
sI216
I4952
sI217
I4953
sI218
I4954
sI219
I4955
sI220
I4956
sI221
I4957
sI222
I4958
sI223
I4959
sI224
I4960
sI225
I4961
sI226
I4962
sI227
I4963
sI228
I4964
sI229
I4965
sI230
I4966
sI231
I4967
sI232
I4968
sI233
I4969
sI234
I4970
sI235
I4971
sI236
I4972
sI237
I4973
sI238
I4974
sI239
I4975
sI240
I4976
sI241
I4977
sI242
I4978
sI243
I4979
sI244
I4980
sI245
I4981
sI246
I4982
sI247
I4983
sI248
I4984
sI249
I4985
sI250
I4986
sI251
I4987
sI252
I4988
sI253
I4989
sI254
I4990
ssI192
(dp36
I64
I4991
sI65
I4992
sI66
I4993
sI67
I4994
sI68
I4995
sI69
I4996
sI70
I4997
sI71
I4998
sI72
I4999
sI73
I5000
sI74
I5001
sI75
I5002
sI76
I5003
sI77
I5004
sI78
I5005
sI79
I5006
sI80
I5007
sI81
I5008
sI82
I5009
sI83
I5010
sI84
I5011
sI85
I5012
sI86
I5013
sI87
I5014
sI88
I5015
sI89
I5016
sI90
I5017
sI91
I5018
sI92
I5019
sI93
I5020
sI94
I5021
sI95
I5022
sI96
I5023
sI97
I5024
sI98
I5025
sI99
I5026
sI100
I5027
sI101
I5028
sI102
I5029
sI103
I5030
sI104
I5031
sI105
I5032
sI106
I5033
sI107
I5034
sI108
I5035
sI109
I5036
sI110
I5037
sI111
I5038
sI112
I5039
sI113
I5040
sI114
I5041
sI115
I5042
sI116
I5043
sI117
I5044
sI118
I5045
sI119
I5046
sI120
I5047
sI121
I5048
sI122
I5049
sI123
I5050
sI124
I5051
sI125
I5052
sI126
I5053
sI161
I5054
sI162
I5055
sI163
I5056
sI164
I5057
sI165
I5058
sI166
I5059
sI167
I5060
sI168
I5061
sI169
I5062
sI170
I5063
sI171
I5064
sI172
I5065
sI173
I5066
sI174
I5067
sI175
I5068
sI176
I5069
sI177
I5070
sI178
I5071
sI179
I5072
sI180
I5073
sI181
I5074
sI182
I5075
sI183
I5076
sI184
I5077
sI185
I5078
sI186
I5079
sI187
I5080
sI188
I5081
sI189
I5082
sI190
I5083
sI191
I5084
sI192
I5085
sI193
I5086
sI194
I5087
sI195
I5088
sI196
I5089
sI197
I5090
sI198
I5091
sI199
I5092
sI200
I5093
sI201
I5094
sI202
I5095
sI203
I5096
sI204
I5097
sI205
I5098
sI206
I5099
sI207
I5100
sI208
I5101
sI209
I5102
sI210
I5103
sI211
I5104
sI212
I5105
sI213
I5106
sI214
I5107
sI215
I5108
sI216
I5109
sI217
I5110
sI218
I5111
sI219
I5112
sI220
I5113
sI221
I5114
sI222
I5115
sI223
I5116
sI224
I5117
sI225
I5118
sI226
I5119
sI227
I5120
sI228
I5121
sI229
I5122
sI230
I5123
sI231
I5124
sI232
I5125
sI233
I5126
sI234
I5127
sI235
I5128
sI236
I5129
sI237
I5130
sI238
I5131
sI239
I5132
sI240
I5133
sI241
I5134
sI242
I5135
sI243
I5136
sI244
I5137
sI245
I5138
sI246
I5139
sI247
I5140
sI248
I5141
sI249
I5142
sI250
I5143
sI251
I5144
sI252
I5145
sI253
I5146
sI254
I5147
ssI193
(dp37
I64
I5148
sI65
I5149
sI66
I5150
sI67
I5151
sI68
I5152
sI69
I5153
sI70
I5154
sI71
I5155
sI72
I5156
sI73
I5157
sI74
I5158
sI75
I5159
sI76
I5160
sI77
I5161
sI78
I5162
sI79
I5163
sI80
I5164
sI81
I5165
sI82
I5166
sI83
I5167
sI84
I5168
sI85
I5169
sI86
I5170
sI87
I5171
sI88
I5172
sI89
I5173
sI90
I5174
sI91
I5175
sI92
I5176
sI93
I5177
sI94
I5178
sI95
I5179
sI96
I5180
sI97
I5181
sI98
I5182
sI99
I5183
sI100
I5184
sI101
I5185
sI102
I5186
sI103
I5187
sI104
I5188
sI105
I5189
sI106
I5190
sI107
I5191
sI108
I5192
sI109
I5193
sI110
I5194
sI111
I5195
sI112
I5196
sI113
I5197
sI114
I5198
sI115
I5199
sI116
I5200
sI117
I5201
sI118
I5202
sI119
I5203
sI120
I5204
sI121
I5205
sI122
I5206
sI123
I5207
sI124
I5208
sI125
I5209
sI126
I5210
sI161
I5211
sI162
I5212
sI163
I5213
sI164
I5214
sI165
I5215
sI166
I5216
sI167
I5217
sI168
I5218
sI169
I5219
sI170
I5220
sI171
I5222
sI172
I5223
sI173
I5224
sI174
I5225
sI175
I5226
sI176
I5227
sI177
I5228
sI178
I5229
sI179
I5230
sI180
I5231
sI181
I5232
sI182
I5233
sI183
I5234
sI184
I5235
sI185
I5236
sI186
I5237
sI187
I5238
sI188
I5239
sI189
I5240
sI190
I5241
sI191
I5242
sI192
I5243
sI193
I5244
sI194
I5245
sI195
I5246
sI196
I5247
sI197
I5248
sI198
I5249
sI199
I5250
sI200
I5251
sI201
I5252
sI202
I5253
sI203
I5254
sI204
I5255
sI205
I5256
sI206
I5257
sI207
I5258
sI208
I5259
sI209
I5260
sI210
I5261
sI211
I5262
sI212
I5263
sI213
I5264
sI214
I5265
sI215
I5266
sI216
I5267
sI217
I5268
sI218
I5269
sI219
I5270
sI220
I5271
sI221
I5272
sI222
I5273
sI223
I5274
sI224
I5275
sI225
I5276
sI226
I5277
sI227
I5278
sI228
I5279
sI229
I5280
sI230
I5281
sI231
I5282
sI232
I5283
sI233
I5284
sI234
I5285
sI235
I5286
sI236
I5287
sI237
I5288
sI238
I5289
sI239
I5290
sI240
I5291
sI241
I5292
sI242
I5293
sI243
I5294
sI244
I5295
sI245
I5296
sI246
I5297
sI247
I5298
sI248
I5299
sI249
I5300
sI250
I5301
sI251
I5302
sI252
I5303
sI253
I5304
sI254
I5305
ssI194
(dp38
I64
I5306
sI65
I5307
sI66
I5308
sI67
I5309
sI68
I5310
sI69
I5311
sI70
I5312
sI71
I5313
sI72
I5314
sI73
I5315
sI74
I5316
sI75
I5317
sI76
I5318
sI77
I5319
sI78
I5320
sI79
I5321
sI80
I5322
sI81
I5323
sI82
I5324
sI83
I5325
sI84
I5326
sI85
I5327
sI86
I5328
sI87
I5329
sI88
I5330
sI89
I5331
sI90
I5332
sI91
I5333
sI92
I5334
sI93
I5335
sI94
I5336
sI95
I5337
sI96
I5338
sI97
I5339
sI98
I5340
sI99
I5341
sI100
I5342
sI101
I5343
sI102
I5344
sI103
I5345
sI104
I5346
sI105
I5347
sI106
I5348
sI107
I5349
sI108
I5350
sI109
I5351
sI110
I5352
sI111
I5353
sI112
I5354
sI113
I5355
sI114
I5356
sI115
I5357
sI116
I5358
sI117
I5359
sI118
I5360
sI119
I5361
sI120
I5362
sI121
I5363
sI122
I5364
sI123
I5365
sI124
I5366
sI125
I5367
sI126
I5368
sI161
I5369
sI162
I5370
sI163
I5371
sI164
I5372
sI165
I5373
sI166
I5374
sI167
I5375
sI168
I5376
sI169
I5377
sI170
I5378
sI171
I5379
sI172
I5380
sI173
I5381
sI174
I5382
sI175
I5383
sI176
I5384
sI177
I5385
sI178
I5386
sI179
I5387
sI180
I5388
sI181
I5389
sI182
I5390
sI183
I5391
sI184
I5392
sI185
I5393
sI186
I5394
sI187
I5395
sI188
I5396
sI189
I5397
sI190
I5398
sI191
I5399
sI192
I5400
sI193
I5401
sI194
I5402
sI195
I5403
sI196
I5404
sI197
I5405
sI198
I5406
sI199
I5407
sI200
I5408
sI201
I5409
sI202
I5410
sI203
I5221
sI204
I5411
sI205
I5412
sI206
I5413
sI207
I5414
sI208
I5415
sI209
I5416
sI210
I5417
sI211
I5418
sI212
I5419
sI213
I5420
sI214
I5421
sI215
I5422
sI216
I5423
sI217
I5424
sI218
I5425
sI219
I5426
sI220
I5427
sI221
I5428
sI222
I5429
sI223
I5430
sI224
I5431
sI225
I5432
sI226
I5433
sI227
I5434
sI228
I5435
sI229
I5436
sI230
I5437
sI231
I5438
sI232
I5439
sI233
I5440
sI234
I5441
sI235
I5442
sI236
I5443
sI237
I5444
sI238
I5445
sI239
I5446
sI240
I5447
sI241
I5448
sI242
I5449
sI243
I5450
sI244
I5451
sI245
I5452
sI246
I5453
sI247
I5454
sI248
I5455
sI249
I5456
sI250
I5457
sI251
I5458
sI252
I5459
sI253
I5460
sI254
I5461
ssI195
(dp39
I64
I5462
sI65
I5463
sI66
I5464
sI67
I5465
sI68
I5466
sI69
I5467
sI70
I5468
sI71
I5469
sI72
I5470
sI73
I5471
sI74
I5472
sI75
I5473
sI76
I5474
sI77
I5475
sI78
I5476
sI79
I5477
sI80
I5478
sI81
I5479
sI82
I5480
sI83
I5481
sI84
I5482
sI85
I5483
sI86
I5484
sI87
I5485
sI88
I5486
sI89
I5487
sI90
I5488
sI91
I5489
sI92
I5490
sI93
I5491
sI94
I5492
sI95
I5493
sI96
I5494
sI97
I5496
sI98
I5497
sI99
I5498
sI100
I5499
sI101
I5500
sI102
I5501
sI103
I5502
sI104
I5503
sI105
I5504
sI106
I5505
sI107
I5506
sI108
I5507
sI109
I5508
sI110
I5509
sI111
I5510
sI112
I5511
sI113
I5512
sI114
I5513
sI115
I5514
sI116
I5515
sI117
I5516
sI118
I5517
sI119
I5518
sI120
I5519
sI121
I5520
sI122
I5521
sI123
I5522
sI124
I5523
sI125
I5524
sI126
I5525
sI161
I5526
sI162
I5527
sI163
I5528
sI164
I5529
sI165
I5530
sI166
I5531
sI167
I5532
sI168
I5533
sI169
I5534
sI170
I5535
sI171
I5536
sI172
I5537
sI173
I5538
sI174
I5539
sI175
I5540
sI176
I5541
sI177
I5542
sI178
I5543
sI179
I5544
sI180
I5545
sI181
I5546
sI182
I5547
sI183
I5548
sI184
I5549
sI185
I5551
sI186
I5550
sI187
I5552
sI188
I5553
sI189
I5554
sI190
I5555
sI191
I5556
sI192
I5557
sI193
I5558
sI194
I5559
sI195
I5560
sI196
I5561
sI197
I5562
sI198
I5563
sI199
I5564
sI200
I5565
sI201
I5566
sI202
I5567
sI203
I5568
sI204
I5569
sI205
I5570
sI206
I5571
sI207
I5572
sI208
I5573
sI209
I5574
sI210
I5575
sI211
I5576
sI212
I5577
sI213
I5578
sI214
I5579
sI215
I5580
sI216
I5581
sI217
I5582
sI218
I5583
sI219
I5584
sI220
I5585
sI221
I5586
sI222
I5587
sI223
I5588
sI224
I5589
sI225
I5590
sI226
I5591
sI227
I5592
sI228
I5593
sI229
I5594
sI230
I5595
sI231
I5596
sI232
I5597
sI233
I5598
sI234
I5599
sI235
I5600
sI236
I5601
sI237
I5602
sI238
I5603
sI239
I5604
sI240
I5605
sI241
I5606
sI242
I5607
sI243
I5608
sI244
I5609
sI245
I5610
sI246
I5611
sI247
I5612
sI248
I5613
sI249
I5614
sI250
I5615
sI251
I5616
sI252
I5617
sI253
I5618
sI254
I5619
ssI196
(dp40
I64
I5620
sI65
I5621
sI66
I5622
sI67
I5623
sI68
I5624
sI69
I5625
sI70
I5626
sI71
I5627
sI72
I5628
sI73
I5629
sI74
I5630
sI75
I5631
sI76
I5632
sI77
I5633
sI78
I5634
sI79
I5635
sI80
I5636
sI81
I5637
sI82
I5638
sI83
I5639
sI84
I5640
sI85
I5641
sI86
I5495
sI87
I5642
sI88
I5643
sI89
I5644
sI90
I5645
sI91
I5646
sI92
I5647
sI93
I5648
sI94
I5649
sI95
I5650
sI96
I5651
sI97
I5652
sI98
I5653
sI99
I5654
sI100
I5655
sI101
I5656
sI102
I5657
sI103
I5658
sI104
I5659
sI105
I5660
sI106
I5661
sI107
I5662
sI108
I5663
sI109
I5664
sI110
I5665
sI111
I5666
sI112
I5667
sI113
I5668
sI114
I5669
sI115
I5670
sI116
I5671
sI117
I5672
sI118
I5673
sI119
I5674
sI120
I5675
sI121
I5676
sI122
I5677
sI123
I5678
sI124
I5679
sI125
I5680
sI126
I5681
sI161
I5682
sI162
I5683
sI163
I5684
sI164
I5685
sI165
I5686
sI166
I5687
sI167
I5688
sI168
I5689
sI169
I5690
sI170
I5691
sI171
I5692
sI172
I5693
sI173
I5694
sI174
I5695
sI175
I5696
sI176
I5697
sI177
I5698
sI178
I5699
sI179
I5700
sI180
I5701
sI181
I5702
sI182
I5703
sI183
I5704
sI184
I5705
sI185
I5706
sI186
I5707
sI187
I5708
sI188
I5709
sI189
I5710
sI190
I5711
sI191
I5712
sI192
I5713
sI193
I5714
sI194
I5715
sI195
I5716
sI196
I5717
sI197
I5718
sI198
I5719
sI199
I5720
sI200
I5721
sI201
I5722
sI202
I5723
sI203
I5724
sI204
I5725
sI205
I5726
sI206
I5727
sI207
I5728
sI208
I5729
sI209
I5730
sI210
I5731
sI211
I5732
sI212
I5733
sI213
I5734
sI214
I5735
sI215
I5736
sI216
I5737
sI217
I5738
sI218
I5739
sI219
I5740
sI220
I5741
sI221
I5742
sI222
I5743
sI223
I5744
sI224
I5745
sI225
I5746
sI226
I5747
sI227
I5748
sI228
I5749
sI229
I5750
sI230
I5751
sI231
I5752
sI232
I5753
sI233
I5754
sI234
I5755
sI235
I5756
sI236
I5757
sI237
I5758
sI238
I5759
sI239
I5760
sI240
I5761
sI241
I5762
sI242
I5763
sI243
I5764
sI244
I5765
sI245
I5766
sI246
I5767
sI247
I5768
sI248
I5769
sI249
I5770
sI250
I5771
sI251
I5772
sI252
I5773
sI253
I5774
sI254
I5775
ssI197
(dp41
I64
I5776
sI65
I5777
sI66
I5778
sI67
I5779
sI68
I5780
sI69
I5781
sI70
I5782
sI71
I5783
sI72
I5784
sI73
I5785
sI74
I5786
sI75
I5787
sI76
I5788
sI77
I5789
sI78
I5790
sI79
I5791
sI80
I5792
sI81
I5793
sI82
I5794
sI83
I5795
sI84
I5796
sI85
I5797
sI86
I5798
sI87
I5799
sI88
I5800
sI89
I5801
sI90
I5802
sI91
I5803
sI92
I5804
sI93
I5805
sI94
I5806
sI95
I5807
sI96
I5808
sI97
I5809
sI98
I5810
sI99
I5811
sI100
I5812
sI101
I5813
sI102
I5814
sI103
I5815
sI104
I5816
sI105
I5817
sI106
I5818
sI107
I5819
sI108
I5820
sI109
I5821
sI110
I5822
sI111
I5823
sI112
I5824
sI113
I5825
sI114
I5826
sI115
I5827
sI116
I5828
sI117
I5829
sI118
I5830
sI119
I5831
sI120
I5832
sI121
I5833
sI122
I5834
sI123
I5835
sI124
I5836
sI125
I5837
sI126
I5838
sI161
I5839
sI162
I5840
sI163
I5841
sI164
I5842
sI165
I5843
sI166
I5844
sI167
I5845
sI168
I5846
sI169
I5847
sI170
I5848
sI171
I5849
sI172
I5850
sI173
I5851
sI174
I5852
sI175
I5853
sI176
I5854
sI177
I5855
sI178
I5856
sI179
I5857
sI180
I5858
sI181
I5859
sI182
I5860
sI183
I5861
sI184
I5862
sI185
I5863
sI186
I5864
sI187
I5865
sI188
I5866
sI189
I5867
sI190
I5868
sI191
I5869
sI192
I5870
sI193
I5871
sI194
I5872
sI195
I5873
sI196
I5874
sI197
I5875
sI198
I5876
sI199
I5877
sI200
I5878
sI201
I5879
sI202
I5880
sI203
I5881
sI204
I5882
sI205
I5883
sI206
I5884
sI207
I5885
sI208
I5886
sI209
I5887
sI210
I5888
sI211
I5889
sI212
I5890
sI213
I5891
sI214
I5892
sI215
I5893
sI216
I5894
sI217
I5895
sI218
I5896
sI219
I5897
sI220
I5898
sI221
I5899
sI222
I5900
sI223
I5901
sI224
I5902
sI225
I5903
sI226
I5904
sI227
I5905
sI228
I5906
sI229
I5907
sI230
I5908
sI231
I5909
sI232
I5910
sI233
I5911
sI234
I5912
sI235
I5913
sI236
I5914
sI237
I5915
sI238
I5916
sI239
I5917
sI240
I5918
sI241
I5919
sI242
I5920
sI243
I5921
sI244
I5922
sI245
I5923
sI246
I5924
sI247
I5925
sI248
I5926
sI249
I5927
sI250
I5928
sI251
I5929
sI252
I5930
sI253
I5931
sI254
I5932
ssI198
(dp42
I64
I5933
sI65
I5934
sI66
I5935
sI67
I5936
sI68
I5937
sI69
I5938
sI70
I5939
sI71
I5940
sI72
I5941
sI73
I5942
sI74
I5943
sI75
I5944
sI76
I5945
sI77
I5946
sI78
I5947
sI79
I5948
sI80
I5949
sI81
I5950
sI82
I5951
sI83
I5952
sI84
I5953
sI85
I5954
sI86
I5955
sI87
I5956
sI88
I5957
sI89
I5958
sI90
I5959
sI91
I5960
sI92
I5961
sI93
I5962
sI94
I5963
sI95
I5964
sI96
I5965
sI97
I5966
sI98
I5967
sI99
I5968
sI100
I5969
sI101
I5970
sI102
I5971
sI103
I5972
sI104
I5973
sI105
I5974
sI106
I5975
sI107
I5976
sI108
I5977
sI109
I5978
sI110
I5979
sI111
I5980
sI112
I5981
sI113
I5982
sI114
I5983
sI115
I5984
sI116
I5985
sI117
I5986
sI118
I5987
sI119
I5988
sI120
I5989
sI121
I5990
sI122
I5991
sI123
I5992
sI124
I5993
sI125
I5994
sI126
I5995
ssI201
(dp43
I64
I5996
sI65
I5997
sI66
I5998
sI67
I5999
sI68
I6000
sI69
I6001
sI70
I6002
sI71
I6003
sI72
I6004
sI73
I6005
sI74
I628
sI75
I6006
sI76
I6007
sI77
I6008
sI78
I6009
sI79
I6010
sI80
I6011
sI81
I6012
sI82
I6013
sI83
I6014
sI84
I6015
sI85
I6016
sI86
I6017
sI87
I6018
sI88
I6019
sI89
I6020
sI90
I6021
sI91
I6022
sI92
I6023
sI93
I6024
sI94
I6025
sI95
I6026
sI96
I6027
sI97
I6028
sI98
I6029
sI99
I6030
sI100
I6031
sI101
I6032
sI102
I6033
sI103
I6034
sI104
I6035
sI105
I6036
sI106
I6037
sI107
I6038
sI108
I6040
sI109
I6041
sI110
I6042
sI111
I6043
sI112
I6044
sI113
I6045
sI114
I6046
sI115
I6047
sI116
I6048
sI117
I6049
sI118
I6050
sI119
I6051
sI120
I6052
sI121
I6053
sI122
I6054
sI123
I6055
sI124
I6056
sI125
I6057
sI126
I6058
sI161
I6059
sI162
I6060
sI163
I6061
sI164
I6062
sI165
I6063
sI166
I6064
sI167
I6065
sI168
I6066
sI169
I6067
sI170
I6068
sI171
I6069
sI172
I6070
sI173
I6071
sI174
I6072
sI175
I6073
sI176
I6074
sI177
I6075
sI178
I6076
sI179
I6077
sI180
I6078
sI181
I6079
sI182
I6080
sI183
I6081
sI184
I6082
sI185
I6083
sI186
I6084
sI187
I6085
sI188
I6086
sI189
I6087
sI190
I6039
sI191
I6088
sI192
I6089
sI193
I6090
sI194
I6091
sI195
I6092
sI196
I6093
sI197
I6094
sI198
I6095
sI199
I6096
sI200
I6097
sI201
I6098
sI202
I6099
sI203
I6100
sI204
I6101
sI205
I6102
sI206
I6103
sI207
I6104
sI208
I6105
sI209
I6106
sI210
I6107
sI211
I6108
sI212
I6109
sI213
I6110
sI214
I6111
sI215
I6112
sI216
I6113
sI217
I6114
sI218
I6115
sI219
I6116
sI220
I6117
sI221
I6118
sI222
I6119
sI223
I6120
sI224
I6121
sI225
I6122
sI226
I6123
sI227
I6124
sI228
I6125
sI229
I6126
sI230
I6127
sI231
I6128
sI232
I6129
sI233
I6130
sI234
I6131
sI235
I6132
sI236
I6133
sI237
I6135
sI238
I6136
sI239
I6137
sI240
I6138
sI241
I6139
sI242
I6140
sI243
I6141
sI244
I6142
sI245
I6143
sI246
I6144
sI247
I6145
sI248
I6146
sI249
I6147
sI250
I6148
sI251
I6149
sI252
I6150
sI253
I6151
sI254
I6152
ssI202
(dp44
I64
I6153
sI65
I6154
sI66
I6155
sI67
I6156
sI68
I6157
sI69
I6158
sI70
I6159
sI71
I6160
sI72
I6161
sI73
I6162
sI74
I6163
sI75
I6164
sI76
I6165
sI77
I6166
sI78
I6167
sI79
I6168
sI80
I6169
sI81
I6170
sI82
I6171
sI83
I6172
sI84
I6173
sI85
I6174
sI86
I6175
sI87
I6176
sI88
I6177
sI89
I6178
sI90
I6179
sI91
I6180
sI92
I6181
sI93
I6182
sI94
I6183
sI95
I6184
sI96
I6185
sI97
I6186
sI98
I6187
sI99
I6188
sI100
I6189
sI101
I6190
sI102
I6191
sI103
I6192
sI104
I6193
sI105
I6194
sI106
I6195
sI107
I6196
sI108
I6197
sI109
I6198
sI110
I6199
sI111
I6200
sI112
I6201
sI113
I6202
sI114
I6203
sI115
I6204
sI116
I6205
sI117
I6206
sI118
I6207
sI119
I6208
sI120
I6209
sI121
I6210
sI122
I6211
sI123
I6212
sI124
I6213
sI125
I6214
sI126
I6215
sI161
I6216
sI162
I6217
sI163
I6218
sI164
I6219
sI165
I6220
sI166
I6221
sI167
I6222
sI168
I6223
sI169
I6224
sI170
I6225
sI171
I6226
sI172
I6227
sI173
I6228
sI174
I6229
sI175
I6230
sI176
I6231
sI177
I6232
sI178
I6233
sI179
I6234
sI180
I6235
sI181
I6236
sI182
I6237
sI183
I6238
sI184
I6239
sI185
I6240
sI186
I6241
sI187
I6242
sI188
I6243
sI189
I6244
sI190
I6245
sI191
I6246
sI192
I6247
sI193
I6248
sI194
I6249
sI195
I6250
sI196
I6251
sI197
I6252
sI198
I6253
sI199
I6254
sI200
I6255
sI201
I6256
sI202
I6257
sI203
I6258
sI204
I6259
sI205
I6260
sI206
I6261
sI207
I6262
sI208
I6263
sI209
I6264
sI210
I6265
sI211
I6266
sI212
I6267
sI213
I6268
sI214
I6269
sI215
I6270
sI216
I6271
sI217
I6272
sI218
I6273
sI219
I6274
sI220
I6275
sI221
I6276
sI222
I6277
sI223
I6278
sI224
I6279
sI225
I6280
sI226
I6281
sI227
I6282
sI228
I6283
sI229
I6284
sI230
I6285
sI231
I6286
sI232
I6287
sI233
I6288
sI234
I6289
sI235
I6290
sI236
I6291
sI237
I6292
sI238
I6293
sI239
I6294
sI240
I6295
sI241
I6296
sI242
I6297
sI243
I6298
sI244
I6299
sI245
I6300
sI246
I6301
sI247
I6134
sI248
I6302
sI249
I6303
sI250
I6304
sI251
I6305
sI252
I6306
sI253
I6307
sI254
I6308
ssI203
(dp45
I64
I6309
sI65
I6310
sI66
I6311
sI67
I6312
sI68
I6313
sI69
I6314
sI70
I6315
sI71
I6316
sI72
I6317
sI73
I6318
sI74
I6319
sI75
I6320
sI76
I6321
sI77
I6322
sI78
I6323
sI79
I6324
sI80
I6325
sI81
I6326
sI82
I6327
sI83
I6328
sI84
I6329
sI85
I6330
sI86
I6331
sI87
I6332
sI88
I6333
sI89
I6334
sI90
I6335
sI91
I6336
sI92
I6337
sI93
I6338
sI94
I6339
sI95
I6340
sI96
I6341
sI97
I6342
sI98
I6343
sI99
I6344
sI100
I6345
sI101
I6346
sI102
I6347
sI103
I6348
sI104
I6349
sI105
I6350
sI106
I6351
sI107
I6352
sI108
I6353
sI109
I6354
sI110
I6355
sI111
I6356
sI112
I6357
sI113
I6358
sI114
I6359
sI115
I6360
sI116
I6361
sI117
I6362
sI118
I6363
sI119
I6364
sI120
I6365
sI121
I6366
sI122
I6367
sI123
I6368
sI124
I6369
sI125
I6370
sI126
I6371
sI161
I6372
sI162
I6373
sI163
I6374
sI164
I6375
sI165
I6376
sI166
I6377
sI167
I6378
sI168
I6379
sI169
I6380
sI170
I6381
sI171
I6382
sI172
I6383
sI173
I6384
sI174
I6385
sI175
I6386
sI176
I6387
sI177
I6388
sI178
I6389
sI179
I6390
sI180
I6391
sI181
I6392
sI182
I6393
sI183
I6394
sI184
I6395
sI185
I6396
sI186
I6397
sI187
I6398
sI188
I6399
sI189
I6400
sI190
I6401
sI191
I6402
sI192
I6403
sI193
I6404
sI194
I6405
sI195
I6406
sI196
I6407
sI197
I6408
sI198
I6409
sI199
I6410
sI200
I6411
sI201
I6412
sI202
I6413
sI203
I6414
sI204
I6415
sI205
I6416
sI206
I6417
sI207
I6418
sI208
I6419
sI209
I6420
sI210
I6421
sI211
I6422
sI212
I6423
sI213
I6424
sI214
I6425
sI215
I6426
sI216
I6427
sI217
I6428
sI218
I6429
sI219
I6430
sI220
I6431
sI221
I6432
sI222
I6433
sI223
I6434
sI224
I6435
sI225
I6436
sI226
I6437
sI227
I6438
sI228
I6439
sI229
I6440
sI230
I6441
sI231
I6442
sI232
I6443
sI233
I6444
sI234
I6445
sI235
I6446
sI236
I6447
sI237
I6448
sI238
I6449
sI239
I6450
sI240
I6451
sI241
I6452
sI242
I6453
sI243
I6454
sI244
I6455
sI245
I6456
sI246
I6457
sI247
I6458
sI248
I6459
sI249
I6460
sI250
I6461
sI251
I6462
sI252
I6463
sI253
I6464
sI254
I6465
ssI204
(dp46
I64
I6466
sI65
I6467
sI66
I6468
sI67
I6469
sI68
I6470
sI69
I6471
sI70
I6472
sI71
I6473
sI72
I6474
sI73
I6475
sI74
I6476
sI75
I6477
sI76
I6478
sI77
I6479
sI78
I6480
sI79
I6481
sI80
I6482
sI81
I6483
sI82
I6484
sI83
I6485
sI84
I6486
sI85
I6487
sI86
I6488
sI87
I6489
sI88
I6490
sI89
I6491
sI90
I6492
sI91
I6493
sI92
I6494
sI93
I6495
sI94
I6496
sI95
I6497
sI96
I6498
sI97
I6499
sI98
I6500
sI99
I6501
sI100
I6502
sI101
I6503
sI102
I6504
sI103
I6505
sI104
I6506
sI105
I6507
sI106
I6508
sI107
I6509
sI108
I6510
sI109
I6511
sI110
I6512
sI111
I6513
sI112
I6514
sI113
I6515
sI114
I6516
sI115
I6517
sI116
I6518
sI117
I6519
sI118
I6520
sI119
I6521
sI120
I6522
sI121
I6523
sI122
I6524
sI123
I6525
sI124
I6526
sI125
I6527
sI126
I6528
sI161
I6529
sI162
I6530
sI163
I6531
sI164
I6532
sI165
I6533
sI166
I6534
sI167
I6535
sI168
I6536
sI169
I6537
sI170
I6538
sI171
I6539
sI172
I6540
sI173
I6541
sI174
I6542
sI175
I6543
sI176
I6544
sI177
I6545
sI178
I6546
sI179
I6547
sI180
I6548
sI181
I6549
sI182
I6550
sI183
I6551
sI184
I6552
sI185
I6553
sI186
I6554
sI187
I6555
sI188
I6556
sI189
I6557
sI190
I6558
sI191
I6559
sI192
I6560
sI193
I6561
sI194
I6562
sI195
I6563
sI196
I6564
sI197
I6565
sI198
I6566
sI199
I6567
sI200
I6568
sI201
I6569
sI202
I6570
sI203
I6571
sI204
I6572
sI205
I6573
sI206
I6574
sI207
I6575
sI208
I6576
sI209
I6577
sI210
I6578
sI211
I6579
sI212
I6580
sI213
I6581
sI214
I6582
sI215
I6583
sI216
I6584
sI217
I6585
sI218
I6586
sI219
I6587
sI220
I6588
sI221
I6589
sI222
I6590
sI223
I6591
sI224
I6592
sI225
I6593
sI226
I6594
sI227
I6595
sI228
I6596
sI229
I6597
sI230
I6598
sI231
I6599
sI232
I6600
sI233
I6601
sI234
I6602
sI235
I6603
sI236
I6604
sI237
I6605
sI238
I6606
sI239
I6607
sI240
I6608
sI241
I6609
sI242
I6610
sI243
I6611
sI244
I6612
sI245
I6613
sI246
I6614
sI247
I6615
sI248
I6616
sI249
I6617
sI250
I6618
sI251
I6619
sI252
I6620
sI253
I6621
sI254
I6622
ssI205
(dp47
I64
I6623
sI65
I6624
sI66
I6625
sI67
I6626
sI68
I6627
sI69
I6628
sI70
I6629
sI71
I6630
sI72
I6631
sI73
I6632
sI74
I6633
sI75
I6634
sI76
I6635
sI77
I6636
sI78
I6637
sI79
I6638
sI80
I6639
sI81
I6640
sI82
I6641
sI83
I6642
sI84
I6643
sI85
I6644
sI86
I6645
sI87
I6646
sI88
I6647
sI89
I6648
sI90
I6649
sI91
I6650
sI92
I6651
sI93
I6652
sI94
I6653
sI95
I6654
sI96
I6655
sI97
I6656
sI98
I6657
sI99
I6658
sI100
I6659
sI101
I6660
sI102
I6661
sI103
I6662
sI104
I6663
sI105
I6664
sI106
I6665
sI107
I6666
sI108
I6667
sI109
I6668
sI110
I6669
sI111
I6670
sI112
I6671
sI113
I6672
sI114
I6673
sI115
I6674
sI116
I6675
sI117
I6676
sI118
I6677
sI119
I6678
sI120
I6679
sI121
I6680
sI122
I6681
sI123
I6682
sI124
I6683
sI125
I6684
sI126
I6685
sI161
I6686
sI162
I6687
sI163
I6688
sI164
I6689
sI165
I6690
sI166
I6691
sI167
I6692
sI168
I6693
sI169
I6694
sI170
I6695
sI171
I6696
sI172
I6697
sI173
I6698
sI174
I6699
sI175
I6700
sI176
I6701
sI177
I6702
sI178
I6703
sI179
I6704
sI180
I6705
sI181
I6706
sI182
I6707
sI183
I6708
sI184
I6709
sI185
I6710
sI186
I6711
sI187
I6712
sI188
I6713
sI189
I6714
sI190
I6715
sI191
I6716
sI192
I6717
sI193
I6718
sI194
I6719
sI195
I6720
sI196
I6721
sI197
I6722
sI198
I6723
sI199
I6724
sI200
I6725
sI201
I6726
sI202
I6727
sI203
I6728
sI204
I6729
sI205
I6730
sI206
I6731
sI207
I6732
sI208
I6733
sI209
I6734
sI210
I6735
sI211
I6736
sI212
I6737
sI213
I6738
sI214
I6739
sI215
I6740
sI216
I6741
sI217
I6742
sI218
I6743
sI219
I6744
sI220
I6745
sI221
I6746
sI222
I6747
sI223
I6748
sI224
I6749
sI225
I6750
sI226
I6751
sI227
I6752
sI228
I6753
sI229
I6754
sI230
I6755
sI231
I6756
sI232
I6757
sI233
I6758
sI234
I6759
sI235
I6760
sI236
I6761
sI237
I6762
sI238
I6763
sI239
I6764
sI240
I6765
sI241
I6766
sI242
I6767
sI243
I6768
sI244
I6769
sI245
I6770
sI246
I6771
sI247
I6772
sI248
I6773
sI249
I6774
sI250
I6775
sI251
I6776
sI252
I6777
sI253
I6778
sI254
I6779
ssI206
(dp48
I64
I6780
sI65
I6781
sI66
I6782
sI67
I6783
sI68
I6784
sI69
I6785
sI70
I6786
sI71
I6787
sI72
I6788
sI73
I6789
sI74
I6790
sI75
I6791
sI76
I6792
sI77
I6793
sI78
I6794
sI79
I6795
sI80
I6796
sI81
I6797
sI82
I6798
sI83
I6799
sI84
I6800
sI85
I6801
sI86
I6802
sI87
I6803
sI88
I6804
sI89
I6805
sI90
I6806
sI91
I6807
sI92
I6808
sI93
I6809
sI94
I6810
sI95
I6811
sI96
I6812
sI97
I6813
sI98
I6814
sI99
I6815
sI100
I6816
sI101
I6817
sI102
I6818
sI103
I6819
sI104
I6820
sI105
I6821
sI106
I6822
sI107
I6823
sI108
I6824
sI109
I6825
sI110
I6826
sI111
I6827
sI112
I6828
sI113
I6829
sI114
I6830
sI115
I6831
sI116
I6832
sI117
I6833
sI118
I6834
sI119
I6835
sI120
I6836
sI121
I6837
sI122
I6838
sI123
I6839
sI124
I6840
sI125
I6841
sI126
I6842
sI161
I6843
sI162
I6844
sI163
I6845
sI164
I6846
sI165
I6847
sI166
I6848
sI167
I6849
sI168
I6850
sI169
I6851
sI170
I6852
sI171
I6853
sI172
I6854
sI173
I6855
sI174
I6856
sI175
I6857
sI176
I6858
sI177
I6859
sI178
I6860
sI179
I6861
sI180
I6862
sI181
I6863
sI182
I6864
sI183
I6865
sI184
I6866
sI185
I6867
sI186
I6868
sI187
I6869
sI188
I6870
sI189
I6871
sI190
I6872
sI191
I6873
sI192
I6874
sI193
I6875
sI194
I6876
sI195
I6877
sI196
I6878
sI197
I6879
sI198
I6880
sI199
I6881
sI200
I6882
sI201
I6883
sI202
I6884
sI203
I6885
sI204
I6886
sI205
I6887
sI206
I6888
sI207
I6889
sI208
I6890
sI209
I6891
sI210
I6892
sI211
I6893
sI212
I6894
sI213
I6895
sI214
I6896
sI215
I6897
sI216
I6898
sI217
I6899
sI218
I6900
sI219
I6901
sI220
I6902
sI221
I6903
sI222
I6904
sI223
I6905
sI224
I6906
sI225
I6907
sI226
I6908
sI227
I6909
sI228
I6910
sI229
I6911
sI230
I6912
sI231
I6913
sI232
I6914
sI233
I6915
sI234
I6916
sI235
I6917
sI236
I6918
sI237
I6919
sI238
I6920
sI239
I6921
sI240
I6922
sI241
I6923
sI242
I6924
sI243
I6925
sI244
I6926
sI245
I6927
sI246
I6928
sI247
I6929
sI248
I6930
sI249
I6931
sI250
I6932
sI251
I6933
sI252
I6934
sI253
I6935
sI254
I6936
ssI207
(dp49
I64
I6937
sI65
I6938
sI66
I6939
sI67
I6940
sI68
I6941
sI69
I6942
sI70
I6943
sI71
I6944
sI72
I6945
sI73
I6946
sI74
I6947
sI75
I6948
sI76
I6949
sI77
I6950
sI78
I6951
sI79
I6952
sI80
I6953
sI81
I6954
sI82
I6955
sI83
I6956
sI84
I6957
sI85
I6958
sI86
I6959
sI87
I6960
sI88
I6961
sI89
I6962
sI90
I6963
sI91
I6964
sI92
I6965
sI93
I6966
sI94
I6967
sI95
I6968
sI96
I6969
sI97
I6970
sI98
I6971
sI99
I6972
sI100
I6973
sI101
I6974
sI102
I6975
sI103
I6976
sI104
I6977
sI105
I6978
sI106
I6979
sI107
I6980
sI108
I6981
sI109
I6982
sI110
I6983
sI111
I6984
sI112
I6985
sI113
I6986
sI114
I6987
sI115
I6988
sI116
I6989
sI117
I6990
sI118
I6991
sI119
I6992
sI120
I6993
sI121
I6994
sI122
I6995
sI123
I6996
sI124
I6997
sI125
I6998
sI126
I6999
sI161
I7000
sI162
I7001
sI163
I7002
sI164
I7003
sI165
I7004
sI166
I7005
sI167
I7006
sI168
I7007
sI169
I7008
sI170
I7009
sI171
I7010
sI172
I7011
sI173
I7012
sI174
I7013
sI175
I7014
sI176
I7015
sI177
I7016
sI178
I7017
sI179
I7018
sI180
I7019
sI181
I7020
sI182
I7021
sI183
I7022
sI184
I7023
sI185
I7024
sI186
I7025
sI187
I7026
sI188
I7027
sI189
I7028
sI190
I7029
sI191
I7030
sI192
I7031
sI193
I7032
sI194
I7033
sI195
I7034
sI196
I7035
sI197
I7036
sI198
I7037
sI199
I7038
sI200
I7039
sI201
I7040
sI202
I7041
sI203
I7042
sI204
I7043
sI205
I7044
sI206
I7045
sI207
I7046
sI208
I7047
sI209
I7048
sI210
I7049
sI211
I7050
sI212
I7051
sI213
I7052
sI214
I7053
sI215
I7054
sI216
I7055
sI217
I7056
sI218
I7057
sI219
I7058
sI220
I7059
sI221
I7060
sI222
I7061
sI223
I7062
sI224
I7063
sI225
I7064
sI226
I7065
sI227
I7066
sI228
I7067
sI229
I7068
sI230
I7069
sI231
I7070
sI232
I7071
sI233
I7072
sI234
I7073
sI235
I7074
sI236
I7075
sI237
I7076
sI238
I7077
sI239
I7078
sI240
I7079
sI241
I7080
sI242
I7081
sI243
I7082
sI244
I7083
sI245
I7084
sI246
I7085
sI247
I7086
sI248
I7087
sI249
I7088
sI250
I7089
sI251
I7090
sI252
I7091
sI253
I7092
sI254
I7093
ssI208
(dp50
I64
I7094
sI65
I7095
sI66
I7096
sI67
I7097
sI68
I7098
sI69
I7099
sI70
I7100
sI71
I7101
sI72
I7102
sI73
I7103
sI74
I7104
sI75
I7105
sI76
I7106
sI77
I7107
sI78
I7108
sI79
I7109
sI80
I7110
sI81
I7111
sI82
I7112
sI83
I7113
sI84
I7114
sI85
I7115
sI86
I7116
sI87
I7117
sI88
I7118
sI89
I7119
sI90
I7120
sI91
I7121
sI92
I7122
sI93
I7123
sI94
I7124
sI95
I7125
sI96
I7126
sI97
I7127
sI98
I7128
sI99
I7129
sI100
I7130
sI101
I7131
sI102
I7132
sI103
I7133
sI104
I7134
sI105
I7135
sI106
I7136
sI107
I7137
sI108
I7138
sI109
I7139
sI110
I7140
sI111
I7141
sI112
I7142
sI113
I7143
sI114
I7144
sI115
I7145
sI116
I7146
sI117
I7147
sI118
I7148
sI119
I7149
sI120
I7150
sI121
I7151
sI122
I7152
sI123
I7153
sI124
I7154
sI125
I7155
sI126
I7156
sI161
I7157
sI162
I7158
sI163
I7159
sI164
I7160
sI165
I7161
sI166
I7162
sI167
I7163
sI168
I7164
sI169
I7165
sI170
I7166
sI171
I7167
sI172
I7168
sI173
I7169
sI174
I7170
sI175
I7171
sI176
I7172
sI177
I7173
sI178
I7174
sI179
I7175
sI180
I7176
sI181
I7177
sI182
I7178
sI183
I7179
sI184
I7180
sI185
I7181
sI186
I7182
sI187
I7183
sI188
I7184
sI189
I7185
sI190
I7186
sI191
I7187
sI192
I7188
sI193
I7189
sI194
I7190
sI195
I7191
sI196
I7192
sI197
I7193
sI198
I7194
sI199
I7195
sI200
I7196
sI201
I7197
sI202
I7198
sI203
I7199
sI204
I7200
sI205
I7201
sI206
I7202
sI207
I7203
sI208
I7204
sI209
I7205
sI210
I7206
sI211
I7207
sI212
I7208
sI213
I7209
sI214
I7210
sI215
I7211
sI216
I7212
sI217
I7213
sI218
I7214
sI219
I7215
sI220
I7216
sI221
I7217
sI222
I7218
sI223
I7219
sI224
I7220
sI225
I7221
sI226
I7222
sI227
I7223
sI228
I7224
sI229
I7225
sI230
I7226
sI231
I7227
sI232
I7228
sI233
I7229
sI234
I7230
sI235
I7231
sI236
I7232
sI237
I7233
sI238
I7234
sI239
I7235
sI240
I7236
sI241
I7237
sI242
I7238
sI243
I7239
sI244
I7240
sI245
I7241
sI246
I7242
sI247
I7243
sI248
I7244
sI249
I7245
sI250
I7246
sI251
I7247
sI252
I7248
sI253
I7249
sI254
I7250
ssI209
(dp51
I64
I7251
sI65
I7252
sI66
I7253
sI67
I7254
sI68
I7255
sI69
I7256
sI70
I7257
sI71
I7258
sI72
I7259
sI73
I7260
sI74
I7261
sI75
I7262
sI76
I7263
sI77
I7264
sI78
I7265
sI79
I7266
sI80
I7267
sI81
I7268
sI82
I7269
sI83
I7270
sI84
I7271
sI85
I7272
sI86
I7273
sI87
I7274
sI88
I7275
sI89
I7276
sI90
I7277
sI91
I7278
sI92
I7279
sI93
I7280
sI94
I7281
sI95
I7282
sI96
I7283
sI97
I7284
sI98
I7285
sI99
I7286
sI100
I7287
sI101
I7288
sI102
I7289
sI103
I7290
sI104
I7291
sI105
I7292
sI106
I7293
sI107
I7294
sI108
I7295
sI109
I7296
sI110
I7297
sI111
I7298
sI112
I7299
sI113
I7300
sI114
I7301
sI115
I7302
sI116
I7303
sI117
I7304
sI118
I7305
sI119
I7306
sI120
I7307
sI121
I7308
sI122
I7309
sI123
I7310
sI124
I7311
sI125
I7312
sI126
I7313
sI161
I7314
sI162
I7315
sI163
I7316
sI164
I7317
sI165
I7318
sI166
I7319
sI167
I7320
sI168
I7321
sI169
I7322
sI170
I7323
sI171
I7324
sI172
I7325
sI173
I7326
sI174
I7327
sI175
I7328
sI176
I7329
sI177
I7330
sI178
I7331
sI179
I7332
sI180
I7333
sI181
I7334
sI182
I7335
sI183
I7336
sI184
I7337
sI185
I7338
sI186
I7339
sI187
I7340
sI188
I7341
sI189
I7342
sI190
I7343
sI191
I7344
sI192
I7345
sI193
I7346
sI194
I7347
sI195
I7348
sI196
I7349
sI197
I7350
sI198
I7351
sI199
I7352
sI200
I7353
sI201
I7354
sI202
I7355
sI203
I7356
sI204
I7357
sI205
I7358
sI206
I7359
sI207
I7360
sI208
I7361
sI209
I7362
sI210
I7363
sI211
I7364
sI212
I7365
sI213
I7366
sI214
I7367
sI215
I7368
sI216
I7369
sI217
I7370
sI218
I7371
sI219
I7372
sI220
I7373
sI221
I7374
sI222
I7375
sI223
I7376
sI224
I7377
sI225
I7378
sI226
I7379
sI227
I7380
sI228
I7381
sI229
I7382
sI230
I7383
sI231
I7384
sI232
I7385
sI233
I7386
sI234
I7387
sI235
I7388
sI236
I7389
sI237
I7390
sI238
I7391
sI239
I7392
sI240
I7393
sI241
I7394
sI242
I7395
sI243
I7396
sI244
I7397
sI245
I7398
sI246
I7399
sI247
I7400
sI248
I7401
sI249
I7402
sI250
I7403
sI251
I7404
sI252
I7405
sI253
I7406
sI254
I7407
ssI210
(dp52
I64
I7408
sI65
I7409
sI66
I7410
sI67
I7411
sI68
I7412
sI69
I7413
sI70
I7414
sI71
I7415
sI72
I7416
sI73
I7417
sI74
I7418
sI75
I7419
sI76
I7420
sI77
I7421
sI78
I7422
sI79
I7423
sI80
I7424
sI81
I7425
sI82
I7426
sI83
I7427
sI84
I7428
sI85
I7429
sI86
I7430
sI87
I7431
sI88
I7432
sI89
I7433
sI90
I7434
sI91
I7435
sI92
I7436
sI93
I7437
sI94
I7438
sI95
I7439
sI96
I7440
sI97
I7441
sI98
I7442
sI99
I7443
sI100
I7444
sI101
I7445
sI102
I7446
sI103
I7447
sI104
I7448
sI105
I7449
sI106
I7450
sI107
I7451
sI108
I7452
sI109
I7453
sI110
I7454
sI111
I7455
sI112
I7456
sI113
I7457
sI114
I7458
sI115
I7459
sI116
I7460
sI117
I7461
sI118
I7462
sI119
I7463
sI120
I7464
sI121
I7465
sI122
I7466
sI123
I7467
sI124
I7468
sI125
I7469
sI126
I7470
sI161
I7471
sI162
I7472
sI163
I7473
sI164
I7474
sI165
I7475
sI166
I7476
sI167
I7477
sI168
I7478
sI169
I7479
sI170
I7480
sI171
I7481
sI172
I7482
sI173
I7483
sI174
I7484
sI175
I7485
sI176
I7486
sI177
I7487
sI178
I7488
sI179
I7489
sI180
I7490
sI181
I7491
sI182
I7492
sI183
I7493
sI184
I7494
sI185
I7495
sI186
I7496
sI187
I7497
sI188
I7498
sI189
I7499
sI190
I7500
sI191
I7501
sI192
I7502
sI193
I7503
sI194
I7504
sI195
I7505
sI196
I7506
sI197
I7507
sI198
I7508
sI199
I7509
sI200
I7510
sI201
I7511
sI202
I7512
sI203
I7513
sI204
I7514
sI205
I7515
sI206
I7516
sI207
I7517
sI208
I7518
sI209
I7519
sI210
I7520
sI211
I7521
sI212
I7522
sI213
I7523
sI214
I7524
sI215
I7525
sI216
I7526
sI217
I7527
sI218
I7528
sI219
I7529
sI220
I7530
sI221
I7531
sI222
I7532
sI223
I7533
sI224
I7534
sI225
I7535
sI226
I7536
sI227
I7537
sI228
I7538
sI229
I7539
sI230
I7540
sI231
I7541
sI232
I7542
sI233
I7543
sI234
I7544
sI235
I7545
sI236
I7546
sI237
I7547
sI238
I7548
sI239
I7549
sI240
I7550
sI241
I7551
sI242
I7552
sI243
I7553
sI244
I7554
sI245
I7555
sI246
I7556
sI247
I7557
sI248
I7558
sI249
I7559
sI250
I7560
sI251
I7561
sI252
I7562
sI253
I7563
sI254
I7564
ssI211
(dp53
I64
I7565
sI65
I7566
sI66
I7567
sI67
I7568
sI68
I7569
sI69
I7570
sI70
I7571
sI71
I7572
sI72
I7573
sI73
I7574
sI74
I7575
sI75
I7576
sI76
I7577
sI77
I7578
sI78
I7579
sI79
I7580
sI80
I7581
sI81
I7582
sI82
I7583
sI83
I7584
sI84
I7585
sI85
I7586
sI86
I7587
sI87
I7588
sI88
I7589
sI89
I7590
sI90
I7591
sI91
I7592
sI92
I7593
sI93
I7594
sI94
I7595
sI95
I7596
sI96
I7597
sI97
I7598
sI98
I7599
sI99
I7600
sI100
I7601
sI101
I7602
sI102
I7603
sI103
I7604
sI104
I7605
sI105
I7606
sI106
I7607
sI107
I7608
sI108
I7609
sI109
I7610
sI110
I7611
sI111
I7612
sI112
I7613
sI113
I7614
sI114
I7615
sI115
I7616
sI116
I7617
sI117
I7618
sI118
I7619
sI119
I7620
sI120
I7621
sI121
I7622
sI122
I7623
sI123
I7624
sI124
I7625
sI125
I7626
sI126
I7627
sI161
I7628
sI162
I7629
sI163
I7630
sI164
I7631
sI165
I7632
sI166
I7633
sI167
I7634
sI168
I7635
sI169
I7636
sI170
I7637
sI171
I7638
sI172
I7639
sI173
I7640
sI174
I7641
sI175
I7642
sI176
I7643
sI177
I7644
sI178
I7645
sI179
I7646
sI180
I7647
sI181
I7648
sI182
I7649
sI183
I7650
sI184
I7651
sI185
I7652
sI186
I7653
sI187
I7654
sI188
I7655
sI189
I7656
sI190
I7657
sI191
I7658
sI192
I7659
sI193
I7660
sI194
I7661
sI195
I7662
sI196
I7663
sI197
I7664
sI198
I7665
sI199
I7666
sI200
I7667
sI201
I7668
sI202
I7669
sI203
I7670
sI204
I7671
sI205
I7672
sI206
I7673
sI207
I7674
sI208
I7675
sI209
I7676
sI210
I7677
sI211
I7678
sI212
I7679
sI213
I7680
sI214
I7681
sI215
I7682
sI216
I7683
sI217
I7684
sI218
I7685
sI219
I7686
sI220
I7687
sI221
I7688
sI222
I7689
sI223
I7690
sI224
I7691
sI225
I7692
sI226
I7693
sI227
I7694
sI228
I7695
sI229
I7696
sI230
I7697
sI231
I7698
sI232
I7699
sI233
I7700
sI234
I7701
sI235
I7702
sI236
I7703
sI237
I7704
sI238
I7705
sI239
I7706
sI240
I7707
sI241
I7708
sI242
I7709
sI243
I7710
sI244
I7711
sI245
I7712
sI246
I7713
sI247
I7714
sI248
I7715
sI249
I7716
sI250
I7717
sI251
I7718
sI252
I7719
sI253
I7720
sI254
I7721
ssI212
(dp54
I64
I7722
sI65
I7723
sI66
I7724
sI67
I7725
sI68
I7726
sI69
I7727
sI70
I7728
sI71
I7729
sI72
I7730
sI73
I7731
sI74
I7732
sI75
I7733
sI76
I7734
sI77
I7735
sI78
I7736
sI79
I7737
sI80
I7738
sI81
I7739
sI82
I7740
sI83
I7741
sI84
I7742
sI85
I7743
sI86
I7744
sI87
I7745
sI88
I7746
sI89
I7747
sI90
I7748
sI91
I7749
sI92
I7750
sI93
I7751
sI94
I7752
sI95
I7753
sI96
I7754
sI97
I7755
sI98
I7756
sI99
I7757
sI100
I7758
sI101
I7759
sI102
I7760
sI103
I7761
sI104
I7762
sI105
I7763
sI106
I7764
sI107
I7765
sI108
I7766
sI109
I7767
sI110
I7768
sI111
I7769
sI112
I7770
sI113
I7771
sI114
I7772
sI115
I7773
sI116
I7774
sI117
I7775
sI118
I7776
sI119
I7777
sI120
I7778
sI121
I7779
sI122
I7780
sI123
I7781
sI124
I7782
sI125
I7783
sI126
I7784
sI161
I7785
sI162
I7786
sI163
I7787
sI164
I7788
sI165
I7789
sI166
I7790
sI167
I7791
sI168
I7792
sI169
I7793
sI170
I7794
sI171
I7795
sI172
I7796
sI173
I7797
sI174
I7798
sI175
I7799
sI176
I7800
sI177
I7801
sI178
I7802
sI179
I7803
sI180
I7804
sI181
I7805
sI182
I7806
sI183
I7807
sI184
I7808
sI185
I7809
sI186
I7810
sI187
I7811
sI188
I7812
sI189
I7813
sI190
I7814
sI191
I7815
sI192
I7816
sI193
I7817
sI194
I7818
sI195
I7819
sI196
I7820
sI197
I7821
sI198
I7822
sI199
I7823
sI200
I7824
sI201
I7825
sI202
I7826
sI203
I7827
sI204
I7828
sI205
I7829
sI206
I7830
sI207
I7831
sI208
I7832
sI209
I7833
sI210
I7834
sI211
I7835
sI212
I7836
sI213
I7837
sI214
I7838
sI215
I7839
sI216
I7840
sI217
I7841
sI218
I7842
sI219
I7843
sI220
I7844
sI221
I7845
sI222
I7846
sI223
I7847
sI224
I7848
sI225
I7849
sI226
I7850
sI227
I7851
sI228
I7852
sI229
I7853
sI230
I7854
sI231
I7855
sI232
I7856
sI233
I7857
sI234
I7858
sI235
I7859
sI236
I7860
sI237
I7861
sI238
I7862
sI239
I7863
sI240
I7864
sI241
I7865
sI242
I7866
sI243
I7867
sI244
I7868
sI245
I7869
sI246
I7870
sI247
I7871
sI248
I7872
sI249
I7873
sI250
I7874
sI251
I7875
sI252
I7876
sI253
I7877
sI254
I7878
ssI213
(dp55
I64
I7879
sI65
I7880
sI66
I7881
sI67
I7882
sI68
I7883
sI69
I7884
sI70
I7885
sI71
I7886
sI72
I7887
sI73
I7888
sI74
I7889
sI75
I7890
sI76
I7891
sI77
I7892
sI78
I7893
sI79
I7894
sI80
I7895
sI81
I7896
sI82
I7897
sI83
I7898
sI84
I7899
sI85
I7900
sI86
I7901
sI87
I7902
sI88
I7903
sI89
I7904
sI90
I7905
sI91
I7906
sI92
I7907
sI93
I7908
sI94
I7909
sI95
I7910
sI96
I7911
sI97
I7912
sI98
I7913
sI99
I7914
sI100
I7915
sI101
I7916
sI102
I7917
sI103
I7918
sI104
I7919
sI105
I7920
sI106
I7921
sI107
I7922
sI108
I7923
sI109
I7924
sI110
I7925
sI111
I7926
sI112
I7927
sI113
I7928
sI114
I7929
sI115
I7930
sI116
I7931
sI117
I7932
sI118
I7933
sI119
I7934
sI120
I7935
sI121
I7936
sI122
I7937
sI123
I7938
sI124
I7939
sI125
I7940
sI126
I7941
sI161
I7942
sI162
I7943
sI163
I7944
sI164
I7945
sI165
I7946
sI166
I7947
sI167
I7948
sI168
I7949
sI169
I7950
sI170
I7951
sI171
I7952
sI172
I7953
sI173
I7954
sI174
I7955
sI175
I7956
sI176
I7957
sI177
I7958
sI178
I7959
sI179
I7960
sI180
I7961
sI181
I7962
sI182
I7963
sI183
I7964
sI184
I7965
sI185
I7966
sI186
I7967
sI187
I7968
sI188
I7969
sI189
I7970
sI190
I7971
sI191
I7972
sI192
I7973
sI193
I7974
sI194
I7975
sI195
I7976
sI196
I7977
sI197
I7978
sI198
I7979
sI199
I7980
sI200
I7981
sI201
I7982
sI202
I7983
sI203
I7984
sI204
I7985
sI205
I7986
sI206
I7987
sI207
I7988
sI208
I7989
sI209
I7990
sI210
I7991
sI211
I7992
sI212
I7993
sI213
I7994
sI214
I7995
sI215
I7996
sI216
I7997
sI217
I7998
sI218
I7999
sI219
I8000
sI220
I8001
sI221
I8002
sI222
I8003
sI223
I8004
sI224
I8005
sI225
I8006
sI226
I8007
sI227
I8008
sI228
I8009
sI229
I8010
sI230
I8011
sI231
I8012
sI232
I8013
sI233
I8014
sI234
I8015
sI235
I8016
sI236
I8017
sI237
I8018
sI238
I8019
sI239
I8020
sI240
I8021
sI241
I8022
sI242
I8023
sI243
I8024
sI244
I8025
sI245
I8026
sI246
I8027
sI247
I8028
sI248
I8029
sI249
I8030
sI250
I8031
sI251
I8032
sI252
I8033
sI253
I8034
sI254
I8035
ssI214
(dp56
I64
I8036
sI65
I8037
sI66
I8038
sI67
I8039
sI68
I8040
sI69
I8041
sI70
I8042
sI71
I8043
sI72
I8044
sI73
I8045
sI74
I8046
sI75
I8047
sI76
I8048
sI77
I8049
sI78
I8050
sI79
I8051
sI80
I8052
sI81
I8053
sI82
I8054
sI83
I8055
sI84
I8056
sI85
I8057
sI86
I8058
sI87
I8059
sI88
I8060
sI89
I8061
sI90
I8062
sI91
I8063
sI92
I8064
sI93
I8065
sI94
I8066
sI95
I8067
sI96
I8068
sI97
I8069
sI98
I8070
sI99
I8071
sI100
I8072
sI101
I8073
sI102
I8074
sI103
I8075
sI104
I8076
sI105
I8077
sI106
I8078
sI107
I8079
sI108
I8080
sI109
I8081
sI110
I8082
sI111
I8083
sI112
I8084
sI113
I8085
sI114
I8086
sI115
I8087
sI116
I8088
sI117
I8089
sI118
I8090
sI119
I8091
sI120
I8092
sI121
I8093
sI122
I8094
sI123
I8095
sI124
I8096
sI125
I8097
sI126
I8098
sI161
I8099
sI162
I8100
sI163
I8101
sI164
I8102
sI165
I8103
sI166
I8104
sI167
I8105
sI168
I8106
sI169
I8107
sI170
I8108
sI171
I8109
sI172
I8110
sI173
I8111
sI174
I8112
sI175
I8113
sI176
I8114
sI177
I8115
sI178
I8116
sI179
I8117
sI180
I8118
sI181
I8119
sI182
I8120
sI183
I8121
sI184
I8122
sI185
I8123
sI186
I8124
sI187
I8125
sI188
I8126
sI189
I8127
sI190
I8128
sI191
I8129
sI192
I8130
sI193
I8131
sI194
I8132
sI195
I8133
sI196
I8134
sI197
I8135
sI198
I8136
sI199
I8137
sI200
I8138
sI201
I8139
sI202
I8140
sI203
I8141
sI204
I8788
sI205
I8143
sI206
I8144
sI207
I8145
sI208
I8146
sI209
I8147
sI210
I8148
sI211
I8149
sI212
I8150
sI213
I8151
sI214
I8152
sI215
I8153
sI216
I8154
sI217
I8155
sI218
I8156
sI219
I8157
sI220
I8158
sI221
I8159
sI222
I8160
sI223
I8161
sI224
I8162
sI225
I8163
sI226
I8164
sI227
I8165
sI228
I8166
sI229
I8167
sI230
I8168
sI231
I8169
sI232
I8170
sI233
I8171
sI234
I8172
sI235
I8173
sI236
I8174
sI237
I8175
sI238
I8176
sI239
I8177
sI240
I8178
sI241
I8179
sI242
I8180
sI243
I8181
sI244
I8182
sI245
I8183
sI246
I8184
sI247
I8185
sI248
I8186
sI249
I8187
sI250
I8188
sI251
I8189
sI252
I8190
sI253
I8191
sI254
I8192
ssI215
(dp57
I64
I8193
sI65
I8194
sI66
I8195
sI67
I8196
sI68
I8197
sI69
I8198
sI70
I8199
sI71
I8200
sI72
I8201
sI73
I8202
sI74
I8203
sI75
I8204
sI76
I8205
sI77
I8206
sI78
I8207
sI79
I8208
sI80
I8209
sI81
I8210
sI82
I8211
sI83
I8212
sI84
I8213
sI85
I8214
sI86
I8215
sI87
I8216
sI88
I8217
sI89
I8218
sI90
I8219
sI91
I8220
sI92
I8221
sI93
I8222
sI94
I8223
sI95
I8224
sI96
I8225
sI97
I8226
sI98
I8227
sI99
I8228
sI100
I8229
sI101
I8230
sI102
I8231
sI103
I8232
sI104
I8233
sI105
I8234
sI106
I8235
sI107
I8236
sI108
I8237
sI109
I8238
sI110
I8239
sI111
I8240
sI112
I8241
sI113
I8242
sI114
I8243
sI115
I8244
sI116
I8245
sI117
I8246
sI118
I8247
sI119
I8248
sI120
I8249
sI121
I8250
sI122
I8889
sI123
I8251
sI124
I8252
sI125
I8253
sI126
I8254
sI161
I8255
sI162
I8256
sI163
I8257
sI164
I8258
sI165
I8259
sI166
I8260
sI167
I8261
sI168
I8262
sI169
I8263
sI170
I8264
sI171
I8265
sI172
I8266
sI173
I8267
sI174
I8268
sI175
I8269
sI176
I8270
sI177
I8271
sI178
I8272
sI179
I8273
sI180
I8274
sI181
I8275
sI182
I8276
sI183
I8277
sI184
I8278
sI185
I8279
sI186
I8280
sI187
I8281
sI188
I8282
sI189
I8283
sI190
I8284
sI191
I8285
sI192
I8286
sI193
I8287
sI194
I8288
sI195
I8289
sI196
I8290
sI197
I8291
sI198
I8292
sI199
I8293
sI200
I8294
sI201
I8295
sI202
I8296
sI203
I8297
sI204
I8298
sI205
I8299
sI206
I8300
sI207
I8301
sI208
I8302
sI209
I8303
sI210
I8304
sI211
I8305
sI212
I8306
sI213
I8307
sI214
I8308
sI215
I8309
sI216
I8310
sI217
I8311
sI218
I8312
sI219
I8313
sI220
I8314
sI221
I8315
sI222
I8316
sI223
I8317
sI224
I8318
sI225
I8319
sI226
I8320
sI227
I8321
sI228
I8322
sI229
I8323
sI230
I8324
sI231
I8325
sI232
I8326
sI233
I8327
sI234
I8328
sI235
I8329
sI236
I8330
sI237
I8331
sI238
I8332
sI239
I8333
sI240
I8334
sI241
I8335
sI242
I8336
sI243
I8337
sI244
I8338
sI245
I8339
sI246
I8340
sI247
I8341
sI248
I8342
sI249
I8343
sI250
I8344
sI251
I8345
sI252
I8346
sI253
I8347
sI254
I8348
ssI216
(dp58
I64
I8349
sI65
I8350
sI66
I8351
sI67
I8352
sI68
I8353
sI69
I8354
sI70
I8355
sI71
I8356
sI72
I8357
sI73
I8358
sI74
I8359
sI75
I8360
sI76
I8361
sI77
I8362
sI78
I8363
sI79
I8364
sI80
I8365
sI81
I8366
sI82
I8367
sI83
I8368
sI84
I8369
sI85
I8370
sI86
I8371
sI87
I8372
sI88
I8373
sI89
I8374
sI90
I8375
sI91
I8376
sI92
I8377
sI93
I8378
sI94
I8379
sI95
I8380
sI96
I8381
sI97
I8382
sI98
I8383
sI99
I8384
sI100
I8385
sI101
I8386
sI102
I8387
sI103
I8388
sI104
I8389
sI105
I8390
sI106
I8391
sI107
I8392
sI108
I8393
sI109
I8394
sI110
I8395
sI111
I8396
sI112
I8397
sI113
I8398
sI114
I8399
sI115
I8400
sI116
I8401
sI117
I8402
sI118
I8403
sI119
I8404
sI120
I8405
sI121
I8406
sI122
I8407
sI123
I8408
sI124
I8409
sI125
I8410
sI126
I8411
sI161
I8412
sI162
I8413
sI163
I8414
sI164
I8415
sI165
I8416
sI166
I8417
sI167
I8418
sI168
I8419
sI169
I8420
sI170
I8421
sI171
I8422
sI172
I8423
sI173
I8424
sI174
I8425
sI175
I8426
sI176
I8427
sI177
I8428
sI178
I8429
sI179
I8430
sI180
I8431
sI181
I8432
sI182
I8433
sI183
I8434
sI184
I8435
sI185
I8436
sI186
I8437
sI187
I8438
sI188
I8439
sI189
I8440
sI190
I8441
sI191
I8442
sI192
I8443
sI193
I8444
sI194
I8445
sI195
I8446
sI196
I8447
sI197
I8448
sI198
I8449
sI199
I8450
sI200
I8451
sI201
I8452
sI202
I8453
sI203
I8454
sI204
I8455
sI205
I8456
sI206
I8457
sI207
I8458
sI208
I8459
sI209
I8460
sI210
I8461
sI211
I8462
sI212
I8463
sI213
I8464
sI214
I8465
sI215
I8466
sI216
I8467
sI217
I8468
sI218
I8469
sI219
I8470
sI220
I8471
sI221
I8472
sI222
I8473
sI223
I8474
sI224
I8475
sI225
I8476
sI226
I8477
sI227
I8478
sI228
I8479
sI229
I8480
sI230
I8481
sI231
I8482
sI232
I8483
sI233
I8484
sI234
I8485
sI235
I8486
sI236
I8487
sI237
I8488
sI238
I8489
sI239
I8490
sI240
I8491
sI241
I8492
sI242
I8493
sI243
I8494
sI244
I8495
sI245
I8496
sI246
I8497
sI247
I8498
sI248
I8499
sI249
I8500
sI250
I8501
sI251
I8502
sI252
I8503
sI253
I8504
sI254
I8505
ssI217
(dp59
I64
I8506
sI65
I8507
sI66
I8508
sI67
I8509
sI68
I8510
sI69
I8511
sI70
I8512
sI71
I8513
sI72
I8514
sI73
I8515
sI74
I8516
sI75
I8517
sI76
I8518
sI77
I8519
sI78
I8520
sI79
I8521
sI80
I8522
sI81
I8523
sI82
I8524
sI83
I8525
sI84
I8526
sI85
I8527
sI86
I8528
sI87
I8529
sI88
I8530
sI89
I8531
sI90
I8532
sI91
I8533
sI92
I8534
sI93
I8535
sI94
I8536
sI95
I8537
sI96
I8538
sI97
I8539
sI98
I8540
sI99
I8541
sI100
I8542
sI101
I8543
sI102
I8544
sI103
I8545
sI104
I8546
sI105
I8547
sI106
I8548
sI107
I8549
sI108
I8550
sI109
I8551
sI110
I8552
sI111
I8553
sI112
I8554
sI113
I8555
sI114
I8556
sI115
I8557
sI116
I8558
sI117
I8559
sI118
I8560
sI119
I8561
sI120
I8562
sI121
I8563
sI122
I8564
sI123
I8565
sI124
I8566
sI125
I8567
sI126
I8568
sI161
I8569
sI162
I8570
sI163
I8571
sI164
I8572
sI165
I8573
sI166
I8574
sI167
I8575
sI168
I8576
sI169
I8577
sI170
I8578
sI171
I8579
sI172
I8580
sI173
I8581
sI174
I8582
sI175
I8583
sI176
I8584
sI177
I8585
sI178
I8586
sI179
I8587
sI180
I8588
sI181
I8589
sI182
I8590
sI183
I8591
sI184
I8592
sI185
I8593
sI186
I8594
sI187
I8595
sI188
I8596
sI189
I8597
sI190
I8598
sI191
I8599
sI192
I8600
sI193
I8601
sI194
I8602
sI195
I8603
sI196
I8604
sI197
I8605
sI198
I8606
sI199
I8607
sI200
I8608
sI201
I8609
sI202
I8610
sI203
I8611
sI204
I8612
sI205
I8613
sI206
I8614
sI207
I8615
sI208
I8616
sI209
I8617
sI210
I8618
sI211
I8619
sI212
I8620
sI213
I8621
sI214
I8622
sI215
I8623
sI216
I8624
sI217
I8625
sI218
I8626
sI219
I8627
sI220
I8628
sI221
I8629
sI222
I8630
sI223
I8631
sI224
I8632
sI225
I8633
sI226
I8634
sI227
I8635
sI228
I8636
sI229
I8637
sI230
I8638
sI231
I8639
sI232
I8640
sI233
I8641
sI234
I8642
sI235
I8643
sI236
I8644
sI237
I8645
sI238
I8646
sI239
I8647
sI240
I8648
sI241
I8649
sI242
I8650
sI243
I8651
sI244
I8652
sI245
I8653
sI246
I8654
sI247
I8655
sI248
I8656
sI249
I8657
sI250
I8658
sI251
I8659
sI252
I8660
sI253
I8661
sI254
I8662
ssI218
(dp60
I64
I8663
sI65
I8664
sI66
I8665
sI67
I8666
sI68
I8667
sI69
I8668
sI70
I8669
sI71
I8670
sI72
I8671
sI73
I8672
sI74
I8673
sI75
I8674
sI76
I8675
sI77
I8676
sI78
I8677
sI79
I8678
sI80
I8679
sI81
I8680
sI82
I8681
sI83
I8682
sI84
I8683
sI85
I8684
sI86
I8685
sI87
I8686
sI88
I8687
sI89
I8688
sI90
I8689
sI91
I8690
sI92
I8691
sI93
I8692
sI94
I8693
sI95
I8694
sI96
I8695
sI97
I8696
sI98
I8697
sI99
I8698
sI100
I8699
sI101
I8700
sI102
I8701
sI103
I8702
sI104
I8703
sI105
I8704
sI106
I8705
sI107
I8706
sI108
I8707
sI109
I8708
sI110
I8709
sI111
I8710
sI112
I8711
sI113
I8712
sI114
I8713
sI115
I8714
sI116
I8715
sI117
I8716
sI118
I8717
sI119
I8718
sI120
I8719
sI121
I8720
sI122
I8721
sI123
I8722
sI124
I8723
sI125
I8724
sI126
I8725
sI161
I8726
sI162
I8727
sI163
I8728
sI164
I8729
sI165
I8730
sI166
I8731
sI167
I8732
sI168
I8733
sI169
I8734
sI170
I8735
sI171
I8736
sI172
I8737
sI173
I8738
sI174
I8739
sI175
I8740
sI176
I8741
sI177
I8742
sI178
I8743
sI179
I8744
sI180
I8745
sI181
I8746
sI182
I8747
sI183
I8748
sI184
I8749
sI185
I8750
sI186
I8751
sI187
I8752
sI188
I8753
sI189
I8754
sI190
I8755
sI191
I8756
sI192
I8757
sI193
I8758
sI194
I8759
sI195
I8760
sI196
I8761
sI197
I8762
sI198
I8763
sI199
I8764
sI200
I8765
sI201
I8766
sI202
I8767
sI203
I8768
sI204
I8769
sI205
I8770
sI206
I8771
sI207
I8772
sI208
I8773
sI209
I8774
sI210
I8775
sI211
I8776
sI212
I8777
sI213
I8778
sI214
I8779
sI215
I8780
sI216
I8781
sI217
I8782
sI218
I8783
sI219
I8784
sI220
I8785
sI221
I8786
sI222
I8787
sI223
I8142
sI224
I8789
sI225
I8790
sI226
I8791
sI227
I8792
sI228
I8793
sI229
I8794
sI230
I8795
sI231
I8796
sI232
I8797
sI233
I8798
sI234
I8799
sI235
I8800
sI236
I8801
sI237
I8802
sI238
I8803
sI239
I8804
sI240
I8805
sI241
I8806
sI242
I8807
sI243
I8808
sI244
I8809
sI245
I8810
sI246
I8811
sI247
I8812
sI248
I8813
sI249
I8814
sI250
I8815
sI251
I8816
sI252
I8817
sI253
I8818
sI254
I8819
ssI219
(dp61
I64
I8820
sI65
I8821
sI66
I8822
sI67
I8823
sI68
I8824
sI69
I8825
sI70
I8826
sI71
I8827
sI72
I8828
sI73
I8829
sI74
I8830
sI75
I8831
sI76
I8832
sI77
I8833
sI78
I8834
sI79
I8835
sI80
I8836
sI81
I8837
sI82
I8838
sI83
I8839
sI84
I8840
sI85
I8841
sI86
I8842
sI87
I8843
sI88
I8844
sI89
I8845
sI90
I8846
sI91
I8847
sI92
I8848
sI93
I8849
sI94
I8850
sI95
I8851
sI96
I8852
sI97
I8853
sI98
I8854
sI99
I8855
sI100
I8856
sI101
I8857
sI102
I8858
sI103
I8859
sI104
I8860
sI105
I8861
sI106
I8862
sI107
I8863
sI108
I8864
sI109
I8865
sI110
I8866
sI111
I8867
sI112
I8868
sI113
I8869
sI114
I8870
sI115
I8871
sI116
I8872
sI117
I8873
sI118
I8874
sI119
I8875
sI120
I8876
sI121
I8877
sI122
I8878
sI123
I8879
sI124
I8880
sI125
I8881
sI126
I8882
sI161
I8883
sI162
I8884
sI163
I8885
sI164
I8886
sI165
I8887
sI166
I8888
sI167
I8890
sI168
I8891
sI169
I8892
sI170
I8893
sI171
I8894
sI172
I8895
sI173
I8896
sI174
I8897
sI175
I8898
sI176
I8899
sI177
I8900
sI178
I8901
sI179
I8902
sI180
I8903
sI181
I8904
sI182
I8905
sI183
I8906
sI184
I8907
sI185
I8908
sI186
I8909
sI187
I8910
sI188
I8911
sI189
I8912
sI190
I8913
sI191
I8914
sI192
I8915
sI193
I8916
sI194
I8917
sI195
I8918
sI196
I8919
sI197
I8920
sI198
I8921
sI199
I8922
sI200
I8923
sI201
I8924
sI202
I8925
sI203
I8926
sI204
I8927
sI205
I8928
sI206
I8929
sI207
I8930
sI208
I8931
sI209
I8932
sI210
I8933
sI211
I8934
sI212
I8935
sI213
I8936
sI214
I8937
sI215
I8938
sI216
I8939
sI217
I8940
sI218
I8941
sI219
I8942
sI220
I8943
sI221
I8944
sI222
I8945
sI223
I8946
sI224
I8947
sI225
I8948
sI226
I8949
sI227
I8950
sI228
I8951
sI229
I8952
sI230
I8953
sI231
I8954
sI232
I8955
sI233
I8956
sI234
I8957
sI235
I8958
sI236
I8959
sI237
I8960
sI238
I8961
sI239
I8962
sI240
I8963
sI241
I8964
sI242
I8965
sI243
I8966
sI244
I8967
sI245
I8968
sI246
I8969
sI247
I8970
sI248
I8971
sI249
I8972
sI250
I8973
sI251
I8974
sI252
I8975
sI253
I8976
sI254
I8977
ssI220
(dp62
I64
I8978
sI65
I8979
sI66
I8980
sI67
I8981
sI68
I8982
sI69
I8983
sI70
I8984
sI71
I8985
sI72
I8986
sI73
I8987
sI74
I8988
sI75
I8989
sI76
I8990
sI77
I8991
sI78
I8992
sI79
I8993
sI80
I8994
sI81
I8995
sI82
I8996
sI83
I8997
sI84
I8998
sI85
I8999
sI86
I9000
sI87
I9001
sI88
I9002
sI89
I9003
sI90
I9004
sI91
I9005
sI92
I9006
sI93
I9007
sI94
I9008
sI95
I9009
sI96
I9010
sI97
I9011
sI98
I9012
sI99
I9013
sI100
I9014
sI101
I9015
sI102
I9016
sI103
I9017
sI104
I9018
sI105
I9019
sI106
I9020
sI107
I9021
sI108
I9022
sI109
I9023
sI110
I9024
sI111
I9025
sI112
I9026
sI113
I9027
sI114
I9028
sI115
I9029
sI116
I9030
sI117
I9031
sI118
I9032
sI119
I9033
sI120
I9034
sI121
I9035
sI122
I9036
sI123
I9037
sI124
I9038
sI125
I9039
sI126
I9040
sI161
I9041
sI162
I9042
sI163
I9043
sI164
I9044
sI165
I9045
sI166
I9046
sI167
I9047
sI168
I9048
sI169
I9049
sI170
I9050
sI171
I9051
sI172
I9052
sI173
I9053
sI174
I9054
sI175
I9055
sI176
I9056
sI177
I9057
sI178
I9058
sI179
I9059
sI180
I9060
sI181
I9061
sI182
I9062
sI183
I9063
sI184
I9064
sI185
I9065
sI186
I9066
sI187
I9067
sI188
I9068
sI189
I9069
sI190
I9070
sI191
I9071
sI192
I9072
sI193
I9073
sI194
I9074
sI195
I9075
sI196
I9076
sI197
I9077
sI198
I9078
sI199
I9079
sI200
I9080
sI201
I9081
sI202
I9082
sI203
I9083
sI204
I9084
sI205
I9085
sI206
I9086
sI207
I9087
sI208
I9088
sI209
I9089
sI210
I9090
sI211
I9091
sI212
I9092
sI213
I9093
sI214
I9094
sI215
I9095
sI216
I9096
sI217
I9097
sI218
I9098
sI219
I9099
sI220
I9100
sI221
I9101
sI222
I9102
sI223
I9103
sI224
I9104
sI225
I9105
sI226
I9106
sI227
I9107
sI228
I9108
sI229
I9109
sI230
I9110
sI231
I9111
sI232
I9112
sI233
I9113
sI234
I9114
sI235
I9115
sI236
I9116
sI237
I9117
sI238
I9118
sI239
I9119
sI240
I9120
sI241
I9121
sI242
I9122
sI243
I9123
sI244
I9124
sI245
I9125
sI246
I9126
sI247
I9127
sI248
I9128
sI249
I9129
sI250
I9130
sI251
I9131
sI252
I9132
sI253
I9133
sI254
I9134
ssI221
(dp63
I64
I9135
sI65
I9136
sI66
I9137
sI67
I9138
sI68
I9139
sI69
I9140
sI70
I9141
sI71
I9142
sI72
I9143
sI73
I9144
sI74
I9145
sI75
I9146
sI76
I9147
sI77
I9148
sI78
I9149
sI79
I9150
sI80
I9151
sI81
I9152
sI82
I9153
sI83
I9154
sI84
I9155
sI85
I9156
sI86
I9157
sI87
I9158
sI88
I9159
sI89
I9160
sI90
I9161
sI91
I9162
sI92
I9163
sI93
I9164
sI94
I9165
sI95
I9166
sI96
I9167
sI97
I9168
sI98
I9169
sI99
I9170
sI100
I9171
sI101
I9172
sI102
I9173
sI103
I9174
sI104
I9175
sI105
I9176
sI106
I9177
sI107
I9178
sI108
I9179
sI109
I9180
sI110
I9181
sI111
I9182
sI112
I9183
sI113
I9184
sI114
I9185
sI115
I9186
sI116
I9187
sI117
I9188
sI118
I9189
sI119
I9190
sI120
I9191
sI121
I9192
sI122
I9193
sI123
I9194
sI124
I9195
sI125
I9196
sI126
I9197
sI161
I9198
sI162
I9199
sI163
I9200
sI164
I9201
sI165
I9202
sI166
I9203
sI167
I9204
sI168
I9205
sI169
I9206
sI170
I9207
sI171
I9208
sI172
I9209
sI173
I9210
sI174
I9211
sI175
I9212
sI176
I9213
sI177
I9214
sI178
I9215
sI179
I9216
sI180
I9217
sI181
I9218
sI182
I9219
sI183
I9220
sI184
I9221
sI185
I9222
sI186
I9223
sI187
I9224
sI188
I9225
sI189
I9226
sI190
I9227
sI191
I9228
sI192
I9229
sI193
I9230
sI194
I9231
sI195
I9232
sI196
I9233
sI197
I9234
sI198
I9235
sI199
I9236
sI200
I9237
sI201
I9238
sI202
I9239
sI203
I9240
sI204
I9241
sI205
I9242
sI206
I9243
sI207
I9244
sI208
I9245
sI209
I9246
sI210
I9247
sI211
I9248
sI212
I9249
sI213
I9250
sI214
I9251
sI215
I9252
sI216
I9253
sI217
I9254
sI218
I9255
sI219
I9256
sI220
I9257
sI221
I9258
sI222
I9259
sI223
I9260
sI224
I9261
sI225
I9262
sI226
I9263
sI227
I9264
sI228
I9265
sI229
I9266
sI230
I9267
sI231
I9268
sI232
I9269
sI233
I9270
sI234
I9271
sI235
I9272
sI236
I9273
sI237
I9274
sI238
I9275
sI239
I9276
sI240
I9277
sI241
I9278
sI242
I9279
sI243
I9280
sI244
I9281
sI245
I9282
sI246
I9283
sI247
I9284
sI248
I9285
sI249
I9286
sI250
I9287
sI251
I9288
sI252
I9089
sI253
I9289
sI254
I9290
ssI222
(dp64
I64
I9291
sI65
I9292
sI66
I9293
sI67
I9294
sI68
I9295
sI69
I9296
sI70
I9297
sI71
I9298
sI72
I9299
sI73
I9300
sI74
I9301
sI75
I9302
sI76
I9303
sI77
I9304
sI78
I9305
sI79
I9306
sI80
I9307
sI81
I9308
sI82
I9309
sI83
I9310
sI84
I9311
sI85
I9312
sI86
I9313
sI87
I9314
sI88
I9315
sI89
I9316
sI90
I9317
sI91
I9318
sI92
I9319
sI93
I9320
sI94
I9321
sI95
I9322
sI96
I9323
sI97
I9324
sI98
I9325
sI99
I9326
sI100
I9327
sI101
I9328
sI102
I9329
sI103
I9330
sI104
I9331
sI105
I9332
sI106
I9333
sI107
I9334
sI108
I9335
sI109
I9336
sI110
I9337
sI111
I9338
sI112
I9339
sI113
I9340
sI114
I9341
sI115
I9342
sI116
I9343
sI117
I9344
sI118
I9345
sI119
I9346
sI120
I9347
sI121
I9348
sI122
I9349
sI123
I9350
sI124
I9351
sI125
I9352
sI126
I9353
sI161
I9354
sI162
I9355
sI163
I9356
sI164
I9357
sI165
I9358
sI166
I9359
sI167
I9360
sI168
I9361
sI169
I9362
sI170
I9363
sI171
I9364
sI172
I9365
sI173
I9366
sI174
I9367
sI175
I9368
sI176
I9369
sI177
I9370
sI178
I9371
sI179
I9372
sI180
I9373
sI181
I9374
sI182
I9375
sI183
I9376
sI184
I9377
sI185
I9378
sI186
I9379
sI187
I9380
sI188
I9381
sI189
I9382
sI190
I9383
sI191
I9384
sI192
I9385
sI193
I9386
sI194
I9387
sI195
I9388
sI196
I9389
sI197
I9390
sI198
I9391
sI199
I9392
sI200
I9393
sI201
I9394
sI202
I9395
sI203
I9396
sI204
I9397
sI205
I9398
sI206
I9399
sI207
I9400
sI208
I9401
sI209
I9402
sI210
I9403
sI211
I9404
sI212
I9405
sI213
I9406
sI214
I9407
sI215
I9408
sI216
I9409
sI217
I9410
sI218
I9411
sI219
I9412
sI220
I9413
sI221
I9414
sI222
I9415
sI223
I9416
sI224
I9417
sI225
I9418
sI226
I9419
sI227
I9420
sI228
I9421
sI229
I9422
sI230
I9423
sI231
I9424
sI232
I9425
sI233
I9426
sI234
I9427
sI235
I9428
sI236
I9429
sI237
I9430
sI238
I9431
sI239
I9432
sI240
I9433
sI241
I9434
sI242
I9435
sI243
I9436
sI244
I9437
sI245
I9438
sI246
I9439
sI247
I9440
sI248
I9441
sI249
I9442
sI250
I9443
sI251
I9444
sI252
I9445
sI253
I9446
sI254
I9447
ssI223
(dp65
I64
I9448
sI65
I9449
sI66
I9450
sI67
I9451
sI68
I9452
sI69
I9453
sI70
I9454
sI71
I9455
sI72
I9456
sI73
I9457
sI74
I9458
sI75
I9459
sI76
I9460
sI77
I9461
sI78
I9462
sI79
I9463
sI80
I9464
sI81
I9465
sI82
I9466
sI83
I9467
sI84
I9468
sI85
I9469
sI86
I9470
sI87
I9471
sI88
I9472
sI89
I9473
sI90
I9474
sI91
I9475
sI92
I9476
sI93
I9477
sI94
I9478
sI95
I9479
sI96
I9480
sI97
I9481
sI98
I9482
sI99
I9483
sI100
I9484
sI101
I9485
sI102
I9486
sI103
I9487
sI104
I9488
sI105
I9489
sI106
I9490
sI107
I9491
sI108
I9492
sI109
I9493
sI110
I9494
sI111
I9495
sI112
I9496
sI113
I9497
sI114
I9498
sI115
I9499
sI116
I9500
sI117
I9501
sI118
I9502
sI119
I9503
sI120
I9504
sI121
I9505
sI122
I9506
sI123
I9507
sI124
I9508
sI125
I9509
sI126
I9510
sI161
I9511
sI162
I9512
sI163
I9513
sI164
I9514
sI165
I9515
sI166
I9516
sI167
I9517
sI168
I9518
sI169
I9519
sI170
I9520
sI171
I9521
sI172
I9522
sI173
I9523
sI174
I9524
sI175
I9525
sI176
I9526
sI177
I9527
sI178
I9528
sI179
I9529
sI180
I9530
sI181
I9531
sI182
I9532
sI183
I9533
sI184
I9534
sI185
I9535
sI186
I9536
sI187
I9537
sI188
I9538
sI189
I9539
sI190
I9540
sI191
I9541
sI192
I9542
sI193
I9543
sI194
I9544
sI195
I9545
sI196
I9546
sI197
I9547
sI198
I9548
sI199
I9549
sI200
I9550
sI201
I9551
sI202
I9552
sI203
I9553
sI204
I9554
sI205
I9555
sI206
I9556
sI207
I9557
sI208
I9558
sI209
I9559
sI210
I9560
sI211
I9561
sI212
I9562
sI213
I9563
sI214
I9564
sI215
I9565
sI216
I9566
sI217
I9567
sI218
I9568
sI219
I9569
sI220
I9570
sI221
I9571
sI222
I9572
sI223
I9573
sI224
I9574
sI225
I9575
sI226
I9576
sI227
I9577
sI228
I9578
sI229
I9579
sI230
I9580
sI231
I9581
sI232
I9582
sI233
I9583
sI234
I9584
sI235
I9585
sI236
I9586
sI237
I9587
sI238
I9588
sI239
I9589
sI240
I9590
sI241
I9591
sI242
I9592
sI243
I9593
sI244
I9594
sI245
I9595
sI246
I9596
sI247
I9597
sI248
I9598
sI249
I9599
sI250
I9600
sI251
I9601
sI252
I9602
sI253
I9603
sI254
I9604
ssI224
(dp66
I64
I9605
sI65
I9606
sI66
I9607
sI67
I9608
sI68
I9609
sI69
I9610
sI70
I9611
sI71
I9612
sI72
I9613
sI73
I9614
sI74
I9615
sI75
I9616
sI76
I9617
sI77
I9618
sI78
I9619
sI79
I9620
sI80
I9621
sI81
I9622
sI82
I9623
sI83
I9624
sI84
I9625
sI85
I9626
sI86
I9627
sI87
I9628
sI88
I9629
sI89
I9630
sI90
I9631
sI91
I9632
sI92
I9633
sI93
I9634
sI94
I9635
sI95
I9636
sI96
I9637
sI97
I9638
sI98
I9639
sI99
I9640
sI100
I9641
sI101
I9642
sI102
I9643
sI103
I9644
sI104
I9645
sI105
I9646
sI106
I9647
sI107
I9648
sI108
I9649
sI109
I9650
sI110
I9651
sI111
I9652
sI112
I9653
sI113
I9654
sI114
I9655
sI115
I9656
sI116
I9657
sI117
I9658
sI118
I9659
sI119
I9660
sI120
I9661
sI121
I9662
sI122
I9663
sI123
I9664
sI124
I9665
sI125
I9666
sI126
I9667
sI161
I9668
sI162
I9669
sI163
I9670
sI164
I9671
sI165
I9672
sI166
I9673
sI167
I9674
sI168
I9675
sI169
I9676
sI170
I9677
sI171
I9678
sI172
I9679
sI173
I9680
sI174
I9681
sI175
I9682
sI176
I9683
sI177
I9684
sI178
I9685
sI179
I9686
sI180
I9687
sI181
I9688
sI182
I9689
sI183
I9690
sI184
I9691
sI185
I9692
sI186
I9693
sI187
I9694
sI188
I9695
sI189
I9696
sI190
I9697
sI191
I9698
sI192
I9699
sI193
I9700
sI194
I9701
sI195
I9702
sI196
I9703
sI197
I9704
sI198
I9705
sI199
I9706
sI200
I9707
sI201
I9708
sI202
I9709
sI203
I9710
sI204
I9711
sI205
I9712
sI206
I9713
sI207
I9714
sI208
I9715
sI209
I9716
sI210
I9717
sI211
I9718
sI212
I9719
sI213
I9720
sI214
I9721
sI215
I9722
sI216
I9723
sI217
I9724
sI218
I9725
sI219
I9726
sI220
I9727
sI221
I9728
sI222
I9729
sI223
I9730
sI224
I9731
sI225
I9732
sI226
I9733
sI227
I9734
sI228
I9735
sI229
I9736
sI230
I9737
sI231
I9738
sI232
I9739
sI233
I9740
sI234
I9741
sI235
I9742
sI236
I9743
sI237
I9744
sI238
I9745
sI239
I9746
sI240
I9747
sI241
I9748
sI242
I9749
sI243
I9750
sI244
I9751
sI245
I9752
sI246
I9753
sI247
I9754
sI248
I9755
sI249
I9756
sI250
I9757
sI251
I9758
sI252
I9759
sI253
I9760
sI254
I9761
ssI225
(dp67
I64
I9762
sI65
I9763
sI66
I9764
sI67
I9765
sI68
I9766
sI69
I9767
sI70
I9768
sI71
I9769
sI72
I9770
sI73
I9771
sI74
I9772
sI75
I9773
sI76
I9774
sI77
I9775
sI78
I9776
sI79
I9777
sI80
I9778
sI81
I9779
sI82
I9780
sI83
I9781
sI84
I9782
sI85
I9783
sI86
I9784
sI87
I9785
sI88
I9786
sI89
I9787
sI90
I9788
sI91
I9789
sI92
I9790
sI93
I9791
sI94
I9792
sI95
I9793
sI96
I9794
sI97
I9795
sI98
I9796
sI99
I9797
sI100
I9798
sI101
I9799
sI102
I9800
sI103
I9801
sI104
I9802
sI105
I9803
sI106
I9804
sI107
I9805
sI108
I9806
sI109
I9807
sI110
I9808
sI111
I9809
sI112
I9810
sI113
I9811
sI114
I9812
sI115
I9813
sI116
I9814
sI117
I9815
sI118
I9816
sI119
I9817
sI120
I9818
sI121
I9819
sI122
I9820
sI123
I9821
sI124
I9822
sI125
I9823
sI126
I9824
sI161
I9825
sI162
I9826
sI163
I9827
sI164
I9828
sI165
I9829
sI166
I9830
sI167
I9831
sI168
I9832
sI169
I9833
sI170
I9834
sI171
I9835
sI172
I9836
sI173
I9837
sI174
I9838
sI175
I9839
sI176
I9840
sI177
I9841
sI178
I9842
sI179
I9843
sI180
I9844
sI181
I9845
sI182
I9846
sI183
I9847
sI184
I9848
sI185
I9849
sI186
I9850
sI187
I9851
sI188
I9852
sI189
I9853
sI190
I9854
sI191
I9855
sI192
I9856
sI193
I9857
sI194
I9858
sI195
I9859
sI196
I9860
sI197
I9861
sI198
I9862
sI199
I9863
sI200
I9864
sI201
I9865
sI202
I9866
sI203
I9867
sI204
I9868
sI205
I9869
sI206
I9870
sI207
I9871
sI208
I9872
sI209
I9873
sI210
I9874
sI211
I9875
sI212
I9876
sI213
I9877
sI214
I9878
sI215
I9879
sI216
I9880
sI217
I9881
sI218
I9882
sI219
I9883
sI220
I9884
sI221
I9885
sI222
I9886
sI223
I9887
sI224
I9888
sI225
I9889
sI226
I9890
sI227
I9891
sI228
I9892
sI229
I9893
sI230
I9894
sI231
I9895
sI232
I9896
sI233
I9897
sI234
I9898
sI235
I9899
sI236
I9900
sI237
I9901
sI238
I9902
sI239
I9903
sI240
I9904
sI241
I9905
sI242
I9906
sI243
I9907
sI244
I9908
sI245
I9909
sI246
I9910
sI247
I9911
sI248
I9912
sI249
I9913
sI250
I9914
sI251
I9915
sI252
I9916
sI253
I9917
sI254
I9918
ssI226
(dp68
I64
I9919
sI65
I9920
sI66
I9921
sI67
I9922
sI68
I9923
sI69
I9924
sI70
I9925
sI71
I9926
sI72
I9927
sI73
I9928
sI74
I9929
sI75
I9930
sI76
I9931
sI77
I9932
sI78
I9933
sI79
I9934
sI80
I9935
sI81
I9936
sI82
I9937
sI83
I9938
sI84
I9939
sI85
I9940
sI86
I9941
sI87
I9942
sI88
I9943
sI89
I9944
sI90
I9945
sI91
I9946
sI92
I9947
sI93
I9948
sI94
I9949
sI95
I9950
sI96
I9951
sI97
I9952
sI98
I9953
sI99
I9954
sI100
I9955
sI101
I9956
sI102
I9957
sI103
I9958
sI104
I9959
sI105
I9960
sI106
I9961
sI107
I9962
sI108
I9963
sI109
I9964
sI110
I9965
sI111
I9966
sI112
I9967
sI113
I9968
sI114
I9969
sI115
I9970
sI116
I9971
sI117
I9972
sI118
I9973
sI119
I9974
sI120
I9975
sI121
I9976
sI122
I9977
sI123
I9978
sI124
I9979
sI125
I9980
sI126
I9981
sI161
I9982
sI162
I9983
sI163
I9984
sI164
I9985
sI165
I9986
sI166
I9987
sI167
I9988
sI168
I9989
sI169
I9990
sI170
I9991
sI171
I9992
sI172
I9993
sI173
I9994
sI174
I9995
sI175
I9996
sI176
I9997
sI177
I9998
sI178
I9999
sI179
I10000
sI180
I10001
sI181
I10002
sI182
I10003
sI183
I10004
sI184
I10005
sI185
I10006
sI186
I10007
sI187
I10008
sI188
I10009
sI189
I10010
sI190
I10011
sI191
I10012
sI192
I10013
sI193
I10014
sI194
I10015
sI195
I10016
sI196
I10017
sI197
I10018
sI198
I10019
sI199
I10020
sI200
I10021
sI201
I10022
sI202
I10023
sI203
I10024
sI204
I10025
sI205
I10026
sI206
I10027
sI207
I10028
sI208
I10029
sI209
I10030
sI210
I10031
sI211
I10032
sI212
I10033
sI213
I10034
sI214
I10035
sI215
I10036
sI216
I10037
sI217
I10038
sI218
I10039
sI219
I10040
sI220
I10041
sI221
I10042
sI222
I10043
sI223
I10044
sI224
I10045
sI225
I10046
sI226
I10047
sI227
I10048
sI228
I10049
sI229
I10050
sI230
I10051
sI231
I10052
sI232
I10053
sI233
I10054
sI234
I10055
sI235
I10056
sI236
I10057
sI237
I10058
sI238
I10059
sI239
I10060
sI240
I10061
sI241
I10062
sI242
I10063
sI243
I10064
sI244
I10065
sI245
I10066
sI246
I10067
sI247
I10068
sI248
I10069
sI249
I10070
sI250
I10071
sI251
I10072
sI252
I10073
sI253
I10074
sI254
I10075
ssI227
(dp69
I64
I10076
sI65
I10077
sI66
I10078
sI67
I10079
sI68
I10080
sI69
I10081
sI70
I10082
sI71
I10083
sI72
I10084
sI73
I10085
sI74
I10086
sI75
I10087
sI76
I10088
sI77
I10089
sI78
I10090
sI79
I10091
sI80
I10092
sI81
I10093
sI82
I10094
sI83
I10095
sI84
I10096
sI85
I10097
sI86
I10098
sI87
I10099
sI88
I10100
sI89
I10101
sI90
I10102
sI91
I10103
sI92
I10104
sI93
I10105
sI94
I10106
sI95
I10107
sI96
I10108
sI97
I10109
sI98
I10110
sI99
I10111
sI100
I10112
sI101
I10113
sI102
I10114
sI103
I10115
sI104
I10116
sI105
I10117
sI106
I10118
sI107
I10119
sI108
I10120
sI109
I10121
sI110
I10122
sI111
I10123
sI112
I10124
sI113
I10125
sI114
I10126
sI115
I10127
sI116
I10128
sI117
I10129
sI118
I10130
sI119
I10131
sI120
I10132
sI121
I10133
sI122
I10134
sI123
I10135
sI124
I10136
sI125
I10137
sI126
I10138
sI161
I10139
sI162
I10140
sI163
I10141
sI164
I10142
sI165
I10143
sI166
I10144
sI167
I10145
sI168
I10146
sI169
I10147
sI170
I10148
sI171
I10149
sI172
I10150
sI173
I10151
sI174
I10152
sI175
I10153
sI176
I10154
sI177
I10155
sI178
I10156
sI179
I10157
sI180
I10158
sI181
I10159
sI182
I10160
sI183
I10161
sI184
I10162
sI185
I10163
sI186
I10164
sI187
I10165
sI188
I10166
sI189
I10167
sI190
I10168
sI191
I10169
sI192
I10170
sI193
I10171
sI194
I10172
sI195
I10173
sI196
I10174
sI197
I10175
sI198
I10176
sI199
I10177
sI200
I10178
sI201
I10179
sI202
I10180
sI203
I10181
sI204
I10182
sI205
I10183
sI206
I10184
sI207
I10185
sI208
I10186
sI209
I10187
sI210
I10188
sI211
I10189
sI212
I10190
sI213
I10191
sI214
I10192
sI215
I10193
sI216
I10194
sI217
I10195
sI218
I10196
sI219
I10197
sI220
I10198
sI221
I10199
sI222
I10200
sI223
I10201
sI224
I10202
sI225
I10203
sI226
I10204
sI227
I10205
sI228
I10206
sI229
I10207
sI230
I10208
sI231
I10209
sI232
I10210
sI233
I10211
sI234
I10212
sI235
I10213
sI236
I10214
sI237
I10215
sI238
I10216
sI239
I10217
sI240
I10218
sI241
I10219
sI242
I10220
sI243
I10221
sI244
I10222
sI245
I10223
sI246
I10224
sI247
I10225
sI248
I10226
sI249
I10227
sI250
I10228
sI251
I10229
sI252
I10230
sI253
I10231
sI254
I10232
ssI228
(dp70
I64
I10233
sI65
I10234
sI66
I10235
sI67
I10236
sI68
I10237
sI69
I10238
sI70
I10239
sI71
I10240
sI72
I10241
sI73
I10242
sI74
I10243
sI75
I10244
sI76
I10245
sI77
I10246
sI78
I10247
sI79
I10248
sI80
I10249
sI81
I10250
sI82
I10251
sI83
I10252
sI84
I10253
sI85
I10254
sI86
I10255
sI87
I10256
sI88
I10257
sI89
I10258
sI90
I10259
sI91
I10260
sI92
I10261
sI93
I10262
sI94
I10263
sI95
I10264
sI96
I10265
sI97
I10266
sI98
I10267
sI99
I10268
sI100
I10269
sI101
I10270
sI102
I10271
sI103
I10272
sI104
I10273
sI105
I10274
sI106
I10275
sI107
I10276
sI108
I10277
sI109
I10278
sI110
I10279
sI111
I10280
sI112
I10281
sI113
I10282
sI114
I10283
sI115
I10284
sI116
I10285
sI117
I10286
sI118
I10287
sI119
I10288
sI120
I10289
sI121
I10290
sI122
I10291
sI123
I10292
sI124
I10293
sI125
I10294
sI126
I10295
sI161
I10296
sI162
I10297
sI163
I10298
sI164
I10299
sI165
I10300
sI166
I10301
sI167
I10302
sI168
I10303
sI169
I10304
sI170
I10305
sI171
I10306
sI172
I10307
sI173
I10308
sI174
I10309
sI175
I10310
sI176
I10311
sI177
I10312
sI178
I10313
sI179
I10314
sI180
I10315
sI181
I10316
sI182
I10317
sI183
I10318
sI184
I10319
sI185
I10320
sI186
I10321
sI187
I10322
sI188
I10323
sI189
I10324
sI190
I10325
sI191
I10326
sI192
I10327
sI193
I10328
sI194
I10329
sI195
I10330
sI196
I10331
sI197
I10332
sI198
I10333
sI199
I10334
sI200
I10335
sI201
I10336
sI202
I10337
sI203
I10338
sI204
I10339
sI205
I10340
sI206
I10341
sI207
I10342
sI208
I10343
sI209
I10344
sI210
I10345
sI211
I10346
sI212
I10347
sI213
I10348
sI214
I10349
sI215
I10350
sI216
I10351
sI217
I10352
sI218
I10353
sI219
I10354
sI220
I10355
sI221
I10356
sI222
I10357
sI223
I10358
sI224
I10359
sI225
I10360
sI226
I10361
sI227
I10362
sI228
I10363
sI229
I10364
sI230
I10365
sI231
I10366
sI232
I10367
sI233
I10368
sI234
I10369
sI235
I10370
sI236
I10371
sI237
I10372
sI238
I10373
sI239
I10374
sI240
I10375
sI241
I10376
sI242
I10377
sI243
I10378
sI244
I10379
sI245
I10380
sI246
I10381
sI247
I10382
sI248
I10383
sI249
I10384
sI250
I10385
sI251
I10386
sI252
I10387
sI253
I10388
sI254
I10389
ssI229
(dp71
I64
I10390
sI65
I10391
sI66
I10392
sI67
I10393
sI68
I10394
sI69
I10395
sI70
I10396
sI71
I10397
sI72
I10398
sI73
I10399
sI74
I10400
sI75
I10401
sI76
I10402
sI77
I10403
sI78
I10404
sI79
I10405
sI80
I10406
sI81
I10407
sI82
I10408
sI83
I10409
sI84
I10410
sI85
I10411
sI86
I10412
sI87
I10413
sI88
I10414
sI89
I10415
sI90
I10416
sI91
I10417
sI92
I10418
sI93
I10419
sI94
I10420
sI95
I10421
sI96
I10422
sI97
I10423
sI98
I10424
sI99
I10425
sI100
I10426
sI101
I10427
sI102
I10428
sI103
I10429
sI104
I10430
sI105
I10431
sI106
I10432
sI107
I10433
sI108
I10434
sI109
I10435
sI110
I10436
sI111
I10437
sI112
I10438
sI113
I10439
sI114
I10440
sI115
I10441
sI116
I10442
sI117
I10443
sI118
I10444
sI119
I10445
sI120
I10446
sI121
I10447
sI122
I10448
sI123
I10449
sI124
I10450
sI125
I10451
sI126
I10452
sI161
I10453
sI162
I10454
sI163
I10455
sI164
I10456
sI165
I10457
sI166
I10458
sI167
I10459
sI168
I10460
sI169
I10461
sI170
I10462
sI171
I10463
sI172
I10464
sI173
I10465
sI174
I10466
sI175
I10467
sI176
I10468
sI177
I10469
sI178
I10470
sI179
I10471
sI180
I10472
sI181
I10473
sI182
I10474
sI183
I10475
sI184
I10476
sI185
I10477
sI186
I10478
sI187
I10479
sI188
I10480
sI189
I10481
sI190
I10482
sI191
I10483
sI192
I10484
sI193
I10485
sI194
I10486
sI195
I10487
sI196
I10488
sI197
I10489
sI198
I10490
sI199
I10491
sI200
I10492
sI201
I10493
sI202
I10494
sI203
I10495
sI204
I10496
sI205
I10497
sI206
I10498
sI207
I10499
sI208
I10500
sI209
I10501
sI210
I10502
sI211
I10503
sI212
I10504
sI213
I10505
sI214
I10506
sI215
I10507
sI216
I10508
sI217
I10509
sI218
I10510
sI219
I10511
sI220
I10512
sI221
I10513
sI222
I10514
sI223
I10515
sI224
I10516
sI225
I10517
sI226
I10518
sI227
I10519
sI228
I10520
sI229
I10521
sI230
I10522
sI231
I10523
sI232
I10524
sI233
I10525
sI234
I10526
sI235
I10527
sI236
I10528
sI237
I10529
sI238
I10530
sI239
I10531
sI240
I10532
sI241
I10533
sI242
I10534
sI243
I10535
sI244
I10536
sI245
I10537
sI246
I10538
sI247
I10539
sI248
I10540
sI249
I10541
sI250
I10542
sI251
I10543
sI252
I10544
sI253
I10545
sI254
I10546
ssI230
(dp72
I64
I10547
sI65
I10548
sI66
I10549
sI67
I10550
sI68
I10551
sI69
I10552
sI70
I10553
sI71
I10554
sI72
I10555
sI73
I10556
sI74
I10557
sI75
I10558
sI76
I10559
sI77
I10560
sI78
I10561
sI79
I10562
sI80
I10563
sI81
I10564
sI82
I10565
sI83
I10566
sI84
I10567
sI85
I10568
sI86
I10569
sI87
I10570
sI88
I10571
sI89
I10572
sI90
I10573
sI91
I10574
sI92
I10575
sI93
I10576
sI94
I10577
sI95
I10578
sI96
I10579
sI97
I10580
sI98
I10581
sI99
I10582
sI100
I10583
sI101
I10584
sI102
I10585
sI103
I10586
sI104
I10587
sI105
I10588
sI106
I10589
sI107
I10590
sI108
I10591
sI109
I10592
sI110
I10593
sI111
I10594
sI112
I10595
sI113
I10596
sI114
I10597
sI115
I10598
sI116
I10599
sI117
I10600
sI118
I10601
sI119
I10602
sI120
I10603
sI121
I10604
sI122
I10605
sI123
I10606
sI124
I10607
sI125
I10608
sI126
I10609
sI161
I10610
sI162
I10611
sI163
I10612
sI164
I10613
sI165
I10614
sI166
I10615
sI167
I10616
sI168
I10617
sI169
I10618
sI170
I10619
sI171
I10620
sI172
I10621
sI173
I10622
sI174
I10623
sI175
I10624
sI176
I10625
sI177
I10626
sI178
I10627
sI179
I10628
sI180
I10629
sI181
I10630
sI182
I10631
sI183
I10632
sI184
I10633
sI185
I10634
sI186
I10635
sI187
I10636
sI188
I10637
sI189
I10638
sI190
I10639
sI191
I10640
sI192
I10641
sI193
I10642
sI194
I10643
sI195
I10644
sI196
I10645
sI197
I10646
sI198
I10647
sI199
I10648
sI200
I10649
sI201
I10650
sI202
I10651
sI203
I10652
sI204
I10653
sI205
I10654
sI206
I10655
sI207
I10656
sI208
I10657
sI209
I10658
sI210
I10659
sI211
I10660
sI212
I10661
sI213
I10662
sI214
I10663
sI215
I10664
sI216
I10665
sI217
I10666
sI218
I10667
sI219
I10668
sI220
I10669
sI221
I10670
sI222
I10671
sI223
I10672
sI224
I10673
sI225
I10674
sI226
I10675
sI227
I10676
sI228
I10677
sI229
I10678
sI230
I10679
sI231
I10680
sI232
I10681
sI233
I10682
sI234
I10683
sI235
I10684
sI236
I10685
sI237
I10686
sI238
I10687
sI239
I10688
sI240
I10689
sI241
I10690
sI242
I10691
sI243
I10692
sI244
I10693
sI245
I10694
sI246
I10695
sI247
I10696
sI248
I10697
sI249
I10698
sI250
I10699
sI251
I10700
sI252
I10701
sI253
I10702
sI254
I10703
ssI231
(dp73
I64
I10704
sI65
I10705
sI66
I10706
sI67
I10707
sI68
I10708
sI69
I10709
sI70
I10710
sI71
I10711
sI72
I10712
sI73
I10713
sI74
I10714
sI75
I10715
sI76
I10716
sI77
I10717
sI78
I10718
sI79
I10719
sI80
I10720
sI81
I10721
sI82
I10722
sI83
I10723
sI84
I10724
sI85
I10725
sI86
I10726
sI87
I10727
sI88
I10728
sI89
I10729
sI90
I10730
sI91
I10731
sI92
I10732
sI93
I10733
sI94
I10734
sI95
I10735
sI96
I10736
sI97
I10737
sI98
I10738
sI99
I10739
sI100
I10740
sI101
I10741
sI102
I10742
sI103
I10743
sI104
I10744
sI105
I10745
sI106
I10746
sI107
I10747
sI108
I10748
sI109
I10749
sI110
I10750
sI111
I10751
sI112
I10752
sI113
I10753
sI114
I10754
sI115
I10755
sI116
I10756
sI117
I10757
sI118
I10758
sI119
I10759
sI120
I10760
sI121
I10761
sI122
I10762
sI123
I10763
sI124
I10764
sI125
I10765
sI126
I10766
sI161
I10767
sI162
I10768
sI163
I10769
sI164
I10770
sI165
I10771
sI166
I10772
sI167
I10773
sI168
I10774
sI169
I10775
sI170
I10776
sI171
I10777
sI172
I10778
sI173
I10779
sI174
I10780
sI175
I10781
sI176
I10782
sI177
I10783
sI178
I10784
sI179
I10785
sI180
I10786
sI181
I10787
sI182
I10788
sI183
I10789
sI184
I10790
sI185
I10791
sI186
I10792
sI187
I10793
sI188
I10794
sI189
I10795
sI190
I10796
sI191
I10797
sI192
I10798
sI193
I10799
sI194
I10800
sI195
I10801
sI196
I10802
sI197
I10803
sI198
I10804
sI199
I10805
sI200
I10806
sI201
I10807
sI202
I10808
sI203
I10809
sI204
I10810
sI205
I10811
sI206
I10812
sI207
I10813
sI208
I10814
sI209
I10815
sI210
I10816
sI211
I10817
sI212
I10818
sI213
I10819
sI214
I10820
sI215
I10821
sI216
I10822
sI217
I10823
sI218
I10824
sI219
I10825
sI220
I10826
sI221
I10827
sI222
I10828
sI223
I10829
sI224
I10830
sI225
I10831
sI226
I10832
sI227
I10833
sI228
I10834
sI229
I10835
sI230
I10836
sI231
I10837
sI232
I10838
sI233
I10839
sI234
I10840
sI235
I10841
sI236
I10842
sI237
I10843
sI238
I10844
sI239
I10845
sI240
I10846
sI241
I10847
sI242
I10848
sI243
I10849
sI244
I10850
sI245
I10851
sI246
I10852
sI247
I10853
sI248
I10854
sI249
I10855
sI250
I10856
sI251
I10857
sI252
I10858
sI253
I10859
sI254
I10860
ssI232
(dp74
I64
I10861
sI65
I10862
sI66
I10863
sI67
I10864
sI68
I10865
sI69
I10866
sI70
I10867
sI71
I10868
sI72
I10869
sI73
I10870
sI74
I10871
sI75
I10872
sI76
I10873
sI77
I10874
sI78
I10875
sI79
I10876
sI80
I10877
sI81
I10878
sI82
I10879
sI83
I10880
sI84
I10881
sI85
I10882
sI86
I10883
sI87
I10884
sI88
I10885
sI89
I10886
sI90
I10887
sI91
I10888
sI92
I10889
sI93
I10890
sI94
I10891
sI95
I10892
sI96
I10893
sI97
I10894
sI98
I10895
sI99
I10896
sI100
I10897
sI101
I10898
sI102
I10899
sI103
I10900
sI104
I10901
sI105
I10902
sI106
I10903
sI107
I10904
sI108
I10905
sI109
I10906
sI110
I10907
sI111
I10908
sI112
I10909
sI113
I10910
sI114
I10911
sI115
I10912
sI116
I10913
sI117
I10914
sI118
I10915
sI119
I10916
sI120
I10917
sI121
I10918
sI122
I10919
sI123
I10920
sI124
I10921
sI125
I10922
sI126
I10923
sI161
I10924
sI162
I10925
sI163
I10927
sI164
I10928
sI165
I10929
sI166
I10930
sI167
I10931
sI168
I10932
sI169
I10933
sI170
I10934
sI171
I10935
sI172
I10936
sI173
I10937
sI174
I10938
sI175
I10939
sI176
I10940
sI177
I10941
sI178
I10942
sI179
I10943
sI180
I10944
sI181
I10945
sI182
I10946
sI183
I10947
sI184
I10948
sI185
I10949
sI186
I10950
sI187
I10951
sI188
I10952
sI189
I10953
sI190
I10954
sI191
I10955
sI192
I10956
sI193
I10957
sI194
I10958
sI195
I10959
sI196
I10960
sI197
I10961
sI198
I10962
sI199
I10963
sI200
I10964
sI201
I10965
sI202
I10966
sI203
I10967
sI204
I10968
sI205
I10969
sI206
I10970
sI207
I10971
sI208
I10972
sI209
I10973
sI210
I10974
sI211
I10975
sI212
I10976
sI213
I10977
sI214
I10978
sI215
I10979
sI216
I10980
sI217
I10981
sI218
I10982
sI219
I10983
sI220
I10984
sI221
I10985
sI222
I10986
sI223
I10987
sI224
I10988
sI225
I10989
sI226
I10990
sI227
I10991
sI228
I10992
sI229
I10993
sI230
I10994
sI231
I10995
sI232
I10996
sI233
I10997
sI234
I10998
sI235
I10999
sI236
I11000
sI237
I11001
sI238
I11002
sI239
I11003
sI240
I11004
sI241
I11005
sI242
I11006
sI243
I11007
sI244
I11008
sI245
I11009
sI246
I11010
sI247
I11011
sI248
I11012
sI249
I11013
sI250
I11014
sI251
I11015
sI252
I11016
sI253
I11017
sI254
I11018
ssI233
(dp75
I64
I11019
sI65
I11020
sI66
I11021
sI67
I11022
sI68
I11023
sI69
I11024
sI70
I11025
sI71
I11026
sI72
I11027
sI73
I11028
sI74
I11029
sI75
I11030
sI76
I11031
sI77
I11032
sI78
I11033
sI79
I11034
sI80
I11035
sI81
I11036
sI82
I11037
sI83
I11038
sI84
I11039
sI85
I11040
sI86
I11041
sI87
I11042
sI88
I11043
sI89
I11044
sI90
I11045
sI91
I11046
sI92
I11047
sI93
I11048
sI94
I11049
sI95
I11050
sI96
I11051
sI97
I11052
sI98
I11053
sI99
I11054
sI100
I11055
sI101
I11056
sI102
I11057
sI103
I11058
sI104
I11059
sI105
I11060
sI106
I11061
sI107
I11062
sI108
I11063
sI109
I11064
sI110
I11065
sI111
I11066
sI112
I11067
sI113
I11068
sI114
I11069
sI115
I11070
sI116
I11071
sI117
I11072
sI118
I11074
sI119
I11075
sI120
I11076
sI121
I11077
sI122
I11078
sI123
I11079
sI124
I11080
sI125
I11081
sI126
I11082
sI161
I11083
sI162
I11084
sI163
I11085
sI164
I11086
sI165
I11087
sI166
I11088
sI167
I11089
sI168
I11090
sI169
I11091
sI170
I11092
sI171
I11093
sI172
I11094
sI173
I11095
sI174
I11096
sI175
I11097
sI176
I11098
sI177
I11099
sI178
I11100
sI179
I11101
sI180
I11102
sI181
I11103
sI182
I11104
sI183
I11105
sI184
I11106
sI185
I11107
sI186
I11108
sI187
I11109
sI188
I11110
sI189
I11111
sI190
I11112
sI191
I11113
sI192
I11114
sI193
I11115
sI194
I11116
sI195
I11117
sI196
I11118
sI197
I11119
sI198
I11120
sI199
I11121
sI200
I11122
sI201
I11123
sI202
I11124
sI203
I11125
sI204
I11126
sI205
I11127
sI206
I11128
sI207
I11129
sI208
I11130
sI209
I11131
sI210
I11132
sI211
I11133
sI212
I11134
sI213
I11135
sI214
I11136
sI215
I11137
sI216
I11138
sI217
I11139
sI218
I11140
sI219
I11141
sI220
I11142
sI221
I11143
sI222
I11144
sI223
I11145
sI224
I11146
sI225
I11147
sI226
I11148
sI227
I11149
sI228
I11150
sI229
I11151
sI230
I11152
sI231
I11153
sI232
I11154
sI233
I11155
sI234
I11156
sI235
I11157
sI236
I11158
sI237
I11159
sI238
I11160
sI239
I11161
sI240
I11162
sI241
I11163
sI242
I11164
sI243
I11165
sI244
I11166
sI245
I11167
sI246
I11168
sI247
I11169
sI248
I11170
sI249
I11171
sI250
I11172
sI251
I11173
sI252
I11174
sI253
I11175
sI254
I11176
ssI234
(dp76
I64
I11177
sI65
I11178
sI66
I11179
sI67
I11180
sI68
I11181
sI69
I11182
sI70
I11183
sI71
I11184
sI72
I11185
sI73
I11186
sI74
I11187
sI75
I11188
sI76
I11189
sI77
I11190
sI78
I11191
sI79
I11192
sI80
I11193
sI81
I11194
sI82
I11195
sI83
I11196
sI84
I11197
sI85
I11198
sI86
I11199
sI87
I11200
sI88
I11201
sI89
I11202
sI90
I11203
sI91
I11204
sI92
I11205
sI93
I11206
sI94
I11207
sI95
I11208
sI96
I11209
sI97
I11210
sI98
I11211
sI99
I11212
sI100
I11213
sI101
I11214
sI102
I11215
sI103
I11216
sI104
I11217
sI105
I11218
sI106
I11219
sI107
I11220
sI108
I11221
sI109
I11222
sI110
I11223
sI111
I11224
sI112
I11225
sI113
I11226
sI114
I11227
sI115
I11228
sI116
I11229
sI117
I11230
sI118
I11231
sI119
I11232
sI120
I11233
sI121
I11234
sI122
I11235
sI123
I11236
sI124
I11237
sI125
I11238
sI126
I11239
sI161
I11240
sI162
I11241
sI163
I11242
sI164
I11243
sI165
I11244
sI166
I11245
sI167
I11246
sI168
I11247
sI169
I11248
sI170
I11249
sI171
I11250
sI172
I11251
sI173
I11252
sI174
I11253
sI175
I11254
sI176
I11255
sI177
I11256
sI178
I11257
sI179
I11258
sI180
I11259
sI181
I11260
sI182
I11261
sI183
I11262
sI184
I11263
sI185
I11264
sI186
I11265
sI187
I11266
sI188
I11267
sI189
I11268
sI190
I11269
sI191
I11270
sI192
I11271
sI193
I11272
sI194
I11273
sI195
I11274
sI196
I11275
sI197
I11276
sI198
I11277
sI199
I11278
sI200
I11279
sI201
I11280
sI202
I11281
sI203
I11282
sI204
I11283
sI205
I11284
sI206
I11285
sI207
I11286
sI208
I11287
sI209
I11288
sI210
I11289
sI211
I11290
sI212
I11291
sI213
I11292
sI214
I11293
sI215
I11294
sI216
I11295
sI217
I11296
sI218
I11297
sI219
I11298
sI220
I11299
sI221
I11300
sI222
I11301
sI223
I11302
sI224
I11303
sI225
I11304
sI226
I11305
sI227
I11306
sI228
I11307
sI229
I11308
sI230
I11309
sI231
I11310
sI232
I11311
sI233
I11312
sI234
I11313
sI235
I11314
sI236
I11315
sI237
I11316
sI238
I11317
sI239
I11318
sI240
I11319
sI241
I11320
sI242
I11321
sI243
I11322
sI244
I11323
sI245
I11324
sI246
I11325
sI247
I11326
sI248
I11327
sI249
I11328
sI250
I11329
sI251
I11330
sI252
I11331
sI253
I11332
sI254
I11333
ssI235
(dp77
I64
I11334
sI65
I11335
sI66
I11336
sI67
I11337
sI68
I11338
sI69
I11339
sI70
I11340
sI71
I11341
sI72
I11342
sI73
I11343
sI74
I11344
sI75
I11345
sI76
I11346
sI77
I11347
sI78
I11348
sI79
I11349
sI80
I11350
sI81
I11351
sI82
I11352
sI83
I11353
sI84
I11354
sI85
I11355
sI86
I11356
sI87
I11357
sI88
I11358
sI89
I11359
sI90
I11360
sI91
I11362
sI92
I11363
sI93
I11364
sI94
I11365
sI95
I11366
sI96
I11367
sI97
I11368
sI98
I11369
sI99
I11370
sI100
I11371
sI101
I11372
sI102
I11373
sI103
I11374
sI104
I11375
sI105
I11376
sI106
I11377
sI107
I11378
sI108
I11379
sI109
I11380
sI110
I11381
sI111
I11382
sI112
I11383
sI113
I11384
sI114
I11385
sI115
I11386
sI116
I11387
sI117
I11388
sI118
I11389
sI119
I11390
sI120
I11391
sI121
I11392
sI122
I11393
sI123
I11394
sI124
I11395
sI125
I11396
sI126
I11397
sI161
I11398
sI162
I11399
sI163
I11400
sI164
I11401
sI165
I11402
sI166
I11403
sI167
I11404
sI168
I11405
sI169
I11406
sI170
I11407
sI171
I11408
sI172
I11409
sI173
I11410
sI174
I11411
sI175
I11412
sI176
I11413
sI177
I11414
sI178
I11415
sI179
I11416
sI180
I11417
sI181
I11418
sI182
I11419
sI183
I11420
sI184
I11421
sI185
I11422
sI186
I11423
sI187
I11424
sI188
I11425
sI189
I11426
sI190
I11427
sI191
I11428
sI192
I11429
sI193
I11430
sI194
I11431
sI195
I11432
sI196
I11433
sI197
I11434
sI198
I11435
sI199
I11436
sI200
I11437
sI201
I11438
sI202
I11439
sI203
I11440
sI204
I11441
sI205
I11442
sI206
I11443
sI207
I11444
sI208
I11445
sI209
I11446
sI210
I11447
sI211
I11448
sI212
I11449
sI213
I11450
sI214
I11451
sI215
I11452
sI216
I11453
sI217
I11454
sI218
I11455
sI219
I11456
sI220
I11457
sI221
I11458
sI222
I11459
sI223
I11460
sI224
I11461
sI225
I11462
sI226
I11463
sI227
I11464
sI228
I11465
sI229
I11466
sI230
I11467
sI231
I11468
sI232
I11469
sI233
I11470
sI234
I11471
sI235
I11472
sI236
I11473
sI237
I11474
sI238
I11475
sI239
I11476
sI240
I11477
sI241
I10926
sI242
I11478
sI243
I11479
sI244
I11480
sI245
I11481
sI246
I11482
sI247
I11483
sI248
I11484
sI249
I11485
sI250
I11486
sI251
I11487
sI252
I11488
sI253
I11489
sI254
I11490
ssI236
(dp78
I64
I11491
sI65
I11492
sI66
I11493
sI67
I11494
sI68
I11495
sI69
I11496
sI70
I11497
sI71
I11498
sI72
I11499
sI73
I11500
sI74
I11501
sI75
I11502
sI76
I11503
sI77
I11504
sI78
I11505
sI79
I11506
sI80
I11507
sI81
I11508
sI82
I11509
sI83
I11510
sI84
I11511
sI85
I11512
sI86
I11513
sI87
I11514
sI88
I11515
sI89
I11516
sI90
I11517
sI91
I11518
sI92
I11519
sI93
I11520
sI94
I11521
sI95
I11522
sI96
I11523
sI97
I11524
sI98
I11525
sI99
I11526
sI100
I11527
sI101
I11528
sI102
I11529
sI103
I11530
sI104
I11531
sI105
I11532
sI106
I11533
sI107
I11534
sI108
I11535
sI109
I11536
sI110
I11537
sI111
I11538
sI112
I11539
sI113
I11540
sI114
I11541
sI115
I11542
sI116
I11543
sI117
I11544
sI118
I11545
sI119
I11546
sI120
I11547
sI121
I11548
sI122
I11549
sI123
I11550
sI124
I11551
sI125
I11552
sI126
I11553
sI161
I11554
sI162
I11555
sI163
I11556
sI164
I11557
sI165
I11558
sI166
I11559
sI167
I11560
sI168
I11561
sI169
I11562
sI170
I11563
sI171
I11564
sI172
I11565
sI173
I11566
sI174
I11567
sI175
I11568
sI176
I11569
sI177
I11570
sI178
I11571
sI179
I11572
sI180
I11573
sI181
I11574
sI182
I11575
sI183
I11576
sI184
I11577
sI185
I11578
sI186
I11579
sI187
I11580
sI188
I11581
sI189
I11582
sI190
I11583
sI191
I11584
sI192
I11585
sI193
I11586
sI194
I11587
sI195
I11588
sI196
I11589
sI197
I11590
sI198
I11591
sI199
I11592
sI200
I11593
sI201
I11594
sI202
I11595
sI203
I11596
sI204
I11597
sI205
I11598
sI206
I11599
sI207
I11600
sI208
I11601
sI209
I11602
sI210
I11603
sI211
I11604
sI212
I11605
sI213
I11606
sI214
I11607
sI215
I11608
sI216
I11609
sI217
I11610
sI218
I11611
sI219
I11612
sI220
I11613
sI221
I11614
sI222
I11073
sI223
I11615
sI224
I11616
sI225
I11617
sI226
I11618
sI227
I11619
sI228
I11620
sI229
I11621
sI230
I11622
sI231
I11623
sI232
I11624
sI233
I11625
sI234
I11626
sI235
I11627
sI236
I11628
sI237
I11629
sI238
I11630
sI239
I11631
sI240
I11632
sI241
I11633
sI242
I11634
sI243
I11635
sI244
I11636
sI245
I11637
sI246
I11638
sI247
I11639
sI248
I11640
sI249
I11641
sI250
I11642
sI251
I11643
sI252
I11644
sI253
I11645
sI254
I11646
ssI237
(dp79
I64
I11647
sI65
I11648
sI66
I11649
sI67
I11650
sI68
I11651
sI69
I11652
sI70
I11653
sI71
I11654
sI72
I11655
sI73
I11656
sI74
I11657
sI75
I11658
sI76
I11659
sI77
I11660
sI78
I11661
sI79
I11662
sI80
I11663
sI81
I11664
sI82
I11665
sI83
I11666
sI84
I11667
sI85
I11668
sI86
I11669
sI87
I11670
sI88
I11671
sI89
I11672
sI90
I11673
sI91
I11674
sI92
I11675
sI93
I11676
sI94
I11677
sI95
I11678
sI96
I11679
sI97
I11680
sI98
I11681
sI99
I11682
sI100
I11683
sI101
I11684
sI102
I11685
sI103
I11686
sI104
I11687
sI105
I11688
sI106
I11689
sI107
I11690
sI108
I11691
sI109
I11692
sI110
I11693
sI111
I11694
sI112
I11695
sI113
I11696
sI114
I11697
sI115
I11698
sI116
I11699
sI117
I11700
sI118
I11701
sI119
I11702
sI120
I11703
sI121
I11704
sI122
I11705
sI123
I11706
sI124
I11707
sI125
I11708
sI126
I11709
sI161
I11710
sI162
I11711
sI163
I11712
sI164
I11713
sI165
I11714
sI166
I11715
sI167
I11716
sI168
I11717
sI169
I11718
sI170
I11720
sI171
I11721
sI172
I11722
sI173
I11723
sI174
I11724
sI175
I11725
sI176
I11726
sI177
I11727
sI178
I11728
sI179
I11729
sI180
I11730
sI181
I11731
sI182
I11732
sI183
I11733
sI184
I11734
sI185
I11735
sI186
I11736
sI187
I11737
sI188
I11738
sI189
I11739
sI190
I11740
sI191
I11741
sI192
I11742
sI193
I11743
sI194
I11744
sI195
I11745
sI196
I11746
sI197
I11747
sI198
I11748
sI199
I11749
sI200
I11750
sI201
I11751
sI202
I11752
sI203
I11753
sI204
I11754
sI205
I11755
sI206
I11756
sI207
I11757
sI208
I11758
sI209
I11759
sI210
I11760
sI211
I11761
sI212
I11762
sI213
I11763
sI214
I11764
sI215
I11765
sI216
I11766
sI217
I11767
sI218
I11768
sI219
I11769
sI220
I11770
sI221
I11771
sI222
I11772
sI223
I11773
sI224
I11774
sI225
I11775
sI226
I11776
sI227
I11777
sI228
I11778
sI229
I11779
sI230
I11780
sI231
I11781
sI232
I11782
sI233
I11783
sI234
I11784
sI235
I11785
sI236
I11786
sI237
I11787
sI238
I11788
sI239
I11789
sI240
I11790
sI241
I11791
sI242
I11792
sI243
I11793
sI244
I11794
sI245
I11795
sI246
I11796
sI247
I11797
sI248
I11798
sI249
I11799
sI250
I11800
sI251
I11801
sI252
I11802
sI253
I11803
sI254
I11804
ssI238
(dp80
I64
I11805
sI65
I11806
sI66
I11807
sI67
I11808
sI68
I11809
sI69
I11810
sI70
I11811
sI71
I11812
sI72
I11813
sI73
I11814
sI74
I11815
sI75
I11816
sI76
I11817
sI77
I11818
sI78
I11819
sI79
I11820
sI80
I11821
sI81
I11822
sI82
I11823
sI83
I11824
sI84
I11825
sI85
I11826
sI86
I11827
sI87
I11828
sI88
I11829
sI89
I11830
sI90
I11831
sI91
I11832
sI92
I11833
sI93
I11834
sI94
I11835
sI95
I11836
sI96
I11837
sI97
I11838
sI98
I11839
sI99
I11840
sI100
I11841
sI101
I11842
sI102
I11843
sI103
I11844
sI104
I11845
sI105
I11846
sI106
I11847
sI107
I11848
sI108
I11849
sI109
I11850
sI110
I11851
sI111
I11852
sI112
I11853
sI113
I11854
sI114
I11855
sI115
I11856
sI116
I11857
sI117
I11858
sI118
I11859
sI119
I11860
sI120
I11861
sI121
I11862
sI122
I11863
sI123
I11864
sI124
I11865
sI125
I11866
sI126
I11867
sI161
I11868
sI162
I11869
sI163
I11870
sI164
I11871
sI165
I11872
sI166
I11873
sI167
I11874
sI168
I11875
sI169
I11876
sI170
I11877
sI171
I11878
sI172
I11879
sI173
I11880
sI174
I11881
sI175
I11882
sI176
I11883
sI177
I11884
sI178
I11885
sI179
I11886
sI180
I11887
sI181
I11888
sI182
I11889
sI183
I11890
sI184
I11891
sI185
I11892
sI186
I11893
sI187
I11894
sI188
I11895
sI189
I11896
sI190
I11897
sI191
I11898
sI192
I11899
sI193
I11900
sI194
I11901
sI195
I11902
sI196
I11903
sI197
I11904
sI198
I11905
sI199
I11906
sI200
I11907
sI201
I11908
sI202
I11909
sI203
I11910
sI204
I11911
sI205
I11912
sI206
I11913
sI207
I11914
sI208
I11915
sI209
I11916
sI210
I11917
sI211
I11918
sI212
I11919
sI213
I11920
sI214
I11921
sI215
I11922
sI216
I11923
sI217
I11924
sI218
I11925
sI219
I11926
sI220
I11927
sI221
I11928
sI222
I11929
sI223
I11930
sI224
I11931
sI225
I11932
sI226
I11933
sI227
I11934
sI228
I11935
sI229
I11936
sI230
I11937
sI231
I11938
sI232
I11939
sI233
I11940
sI234
I11941
sI235
I12308
sI236
I11942
sI237
I11943
sI238
I11944
sI239
I11945
sI240
I11946
sI241
I11947
sI242
I11948
sI243
I11949
sI244
I11950
sI245
I11951
sI246
I11952
sI247
I11953
sI248
I11954
sI249
I11955
sI250
I11956
sI251
I11957
sI252
I11958
sI253
I11959
sI254
I11960
ssI239
(dp81
I64
I11961
sI65
I11962
sI66
I11963
sI67
I11964
sI68
I11965
sI69
I11966
sI70
I11967
sI71
I11968
sI72
I11969
sI73
I11970
sI74
I11971
sI75
I11972
sI76
I11973
sI77
I11974
sI78
I11975
sI79
I11976
sI80
I11977
sI81
I11978
sI82
I11979
sI83
I11980
sI84
I11981
sI85
I11982
sI86
I11983
sI87
I11984
sI88
I11985
sI89
I11986
sI90
I11987
sI91
I11988
sI92
I11989
sI93
I11990
sI94
I11991
sI95
I11992
sI96
I11993
sI97
I11994
sI98
I11995
sI99
I11996
sI100
I11997
sI101
I11998
sI102
I11999
sI103
I12000
sI104
I12001
sI105
I12002
sI106
I12003
sI107
I12004
sI108
I12005
sI109
I12006
sI110
I12007
sI111
I12008
sI112
I12009
sI113
I12010
sI114
I12011
sI115
I12012
sI116
I12013
sI117
I12014
sI118
I12015
sI119
I12016
sI120
I12017
sI121
I12018
sI122
I12019
sI123
I12020
sI124
I12021
sI125
I12022
sI126
I12023
sI161
I12024
sI162
I12025
sI163
I12026
sI164
I12027
sI165
I12028
sI166
I12029
sI167
I12030
sI168
I12031
sI169
I12032
sI170
I12033
sI171
I12034
sI172
I12035
sI173
I12036
sI174
I12037
sI175
I12038
sI176
I12039
sI177
I12040
sI178
I12041
sI179
I12042
sI180
I12043
sI181
I12044
sI182
I12045
sI183
I12046
sI184
I12047
sI185
I12048
sI186
I12049
sI187
I12050
sI188
I12051
sI189
I12052
sI190
I12053
sI191
I12054
sI192
I12055
sI193
I12056
sI194
I12057
sI195
I12058
sI196
I12059
sI197
I12060
sI198
I12061
sI199
I12062
sI200
I12063
sI201
I12064
sI202
I12065
sI203
I12066
sI204
I12067
sI205
I12068
sI206
I12069
sI207
I12070
sI208
I12071
sI209
I12072
sI210
I12073
sI211
I12074
sI212
I12075
sI213
I12076
sI214
I12077
sI215
I12078
sI216
I12079
sI217
I12080
sI218
I12081
sI219
I12082
sI220
I12083
sI221
I12084
sI222
I12085
sI223
I12086
sI224
I12087
sI225
I12088
sI226
I12089
sI227
I12090
sI228
I12091
sI229
I12092
sI230
I12093
sI231
I12094
sI232
I12095
sI233
I12096
sI234
I12097
sI235
I12098
sI236
I12099
sI237
I12100
sI238
I12101
sI239
I12102
sI240
I12103
sI241
I12104
sI242
I12105
sI243
I12106
sI244
I12107
sI245
I12108
sI246
I12109
sI247
I12110
sI248
I12111
sI249
I12112
sI250
I12113
sI251
I12114
sI252
I12115
sI253
I12116
sI254
I12117
ssI240
(dp82
I64
I12118
sI65
I12119
sI66
I12120
sI67
I12121
sI68
I12122
sI69
I12123
sI70
I12124
sI71
I12125
sI72
I12126
sI73
I12127
sI74
I12128
sI75
I12129
sI76
I12130
sI77
I12131
sI78
I12132
sI79
I12133
sI80
I12134
sI81
I12135
sI82
I12136
sI83
I12137
sI84
I12138
sI85
I12139
sI86
I11719
sI87
I12140
sI88
I12141
sI89
I12142
sI90
I12143
sI91
I12144
sI92
I12145
sI93
I12146
sI94
I12147
sI95
I12148
sI96
I12149
sI97
I12150
sI98
I12151
sI99
I12152
sI100
I12153
sI101
I12154
sI102
I12155
sI103
I12156
sI104
I12157
sI105
I12158
sI106
I12159
sI107
I12160
sI108
I12161
sI109
I12162
sI110
I12163
sI111
I12164
sI112
I12165
sI113
I12166
sI114
I12167
sI115
I12168
sI116
I12169
sI117
I12170
sI118
I12171
sI119
I12172
sI120
I12173
sI121
I12174
sI122
I12175
sI123
I12176
sI124
I12177
sI125
I12178
sI126
I12179
sI161
I12180
sI162
I12181
sI163
I12182
sI164
I12183
sI165
I12184
sI166
I12185
sI167
I12186
sI168
I12187
sI169
I12188
sI170
I12189
sI171
I12190
sI172
I12191
sI173
I12192
sI174
I12193
sI175
I12194
sI176
I12195
sI177
I12196
sI178
I12197
sI179
I12198
sI180
I12199
sI181
I12200
sI182
I12201
sI183
I12202
sI184
I12203
sI185
I12204
sI186
I12205
sI187
I12206
sI188
I12207
sI189
I12208
sI190
I12209
sI191
I12210
sI192
I12211
sI193
I12212
sI194
I12213
sI195
I12214
sI196
I12215
sI197
I12216
sI198
I12217
sI199
I12218
sI200
I12219
sI201
I12220
sI202
I12221
sI203
I11361
sI204
I12222
sI205
I12223
sI206
I12224
sI207
I12225
sI208
I12226
sI209
I12227
sI210
I12228
sI211
I12229
sI212
I12230
sI213
I12231
sI214
I12232
sI215
I12233
sI216
I12234
sI217
I12235
sI218
I12236
sI219
I12237
sI220
I12238
sI221
I12239
sI222
I12240
sI223
I12241
sI224
I12242
sI225
I12243
sI226
I12244
sI227
I12245
sI228
I12246
sI229
I12247
sI230
I12248
sI231
I12249
sI232
I12250
sI233
I12251
sI234
I12252
sI235
I12253
sI236
I12254
sI237
I12255
sI238
I12256
sI239
I12257
sI240
I12258
sI241
I12259
sI242
I12260
sI243
I12261
sI244
I12262
sI245
I12263
sI246
I12264
sI247
I12265
sI248
I12266
sI249
I12267
sI250
I12268
sI251
I12269
sI252
I12270
sI253
I12271
sI254
I12272
ssI241
(dp83
I64
I12273
sI65
I12274
sI66
I12275
sI67
I12276
sI68
I12277
sI69
I12278
sI70
I12279
sI71
I12280
sI72
I12281
sI73
I12282
sI74
I12283
sI75
I12284
sI76
I12285
sI77
I12286
sI78
I12287
sI79
I12288
sI80
I12289
sI81
I12290
sI82
I12291
sI83
I12292
sI84
I12293
sI85
I12294
sI86
I12295
sI87
I12296
sI88
I12297
sI89
I12298
sI90
I12299
sI91
I12300
sI92
I12301
sI93
I12302
sI94
I12303
sI95
I12304
sI96
I12305
sI97
I12306
sI98
I12307
sI99
I12309
sI100
I12310
sI101
I12311
sI102
I12312
sI103
I12313
sI104
I12314
sI105
I12315
sI106
I12316
sI107
I12640
sI108
I12317
sI109
I12318
sI110
I12319
sI111
I12320
sI112
I12321
sI113
I12322
sI114
I12323
sI115
I12324
sI116
I12325
sI117
I12326
sI118
I12327
sI119
I12328
sI120
I12329
sI121
I12330
sI122
I12331
sI123
I12332
sI124
I12333
sI125
I12334
sI126
I12335
sI161
I12336
sI162
I12337
sI163
I12338
sI164
I12339
sI165
I12340
sI166
I12341
sI167
I12342
sI168
I12343
sI169
I12344
sI170
I12345
sI171
I12346
sI172
I12347
sI173
I12348
sI174
I12349
sI175
I12350
sI176
I12351
sI177
I12352
sI178
I12353
sI179
I12354
sI180
I12355
sI181
I12356
sI182
I12357
sI183
I12358
sI184
I12359
sI185
I12360
sI186
I12361
sI187
I12362
sI188
I12363
sI189
I12364
sI190
I12365
sI191
I12366
sI192
I12367
sI193
I12368
sI194
I12369
sI195
I12370
sI196
I12371
sI197
I12372
sI198
I12373
sI199
I12374
sI200
I12375
sI201
I12376
sI202
I12377
sI203
I12378
sI204
I12379
sI205
I12380
sI206
I12381
sI207
I12382
sI208
I12383
sI209
I12384
sI210
I12385
sI211
I12386
sI212
I12387
sI213
I12388
sI214
I12389
sI215
I12390
sI216
I12391
sI217
I12392
sI218
I12393
sI219
I12394
sI220
I12395
sI221
I12396
sI222
I12397
sI223
I12398
sI224
I12399
sI225
I12400
sI226
I12401
sI227
I12402
sI228
I12403
sI229
I12404
sI230
I12405
sI231
I12406
sI232
I12407
sI233
I12408
sI234
I12409
sI235
I12410
sI236
I12411
sI237
I12412
sI238
I12413
sI239
I12414
sI240
I12415
sI241
I12416
sI242
I12417
sI243
I12418
sI244
I12419
sI245
I12420
sI246
I12421
sI247
I12422
sI248
I12423
sI249
I12424
sI250
I12425
sI251
I12426
sI252
I12427
sI253
I12428
sI254
I12429
ssI242
(dp84
I64
I12430
sI65
I12431
sI66
I12432
sI67
I12433
sI68
I12434
sI69
I12435
sI70
I12436
sI71
I12437
sI72
I12438
sI73
I12439
sI74
I12440
sI75
I12441
sI76
I12442
sI77
I12443
sI78
I12444
sI79
I12445
sI80
I12446
sI81
I12447
sI82
I12448
sI83
I12449
sI84
I12450
sI85
I12451
sI86
I12452
sI87
I12453
sI88
I12454
sI89
I12455
sI90
I12456
sI91
I12457
sI92
I12458
sI93
I12459
sI94
I12460
sI95
I12461
sI96
I12462
sI97
I12463
sI98
I12464
sI99
I12465
sI100
I12466
sI101
I12467
sI102
I12468
sI103
I12469
sI104
I12783
sI105
I12470
sI106
I12471
sI107
I12472
sI108
I12473
sI109
I12474
sI110
I12475
sI111
I12476
sI112
I12477
sI113
I12478
sI114
I12479
sI115
I12480
sI116
I12481
sI117
I12482
sI118
I12483
sI119
I12484
sI120
I12485
sI121
I12486
sI122
I12487
sI123
I12488
sI124
I12489
sI125
I12490
sI126
I12491
sI161
I12492
sI162
I12493
sI163
I12494
sI164
I12495
sI165
I12496
sI166
I12497
sI167
I12498
sI168
I12499
sI169
I12500
sI170
I12501
sI171
I12502
sI172
I12503
sI173
I12504
sI174
I12505
sI175
I12506
sI176
I12507
sI177
I12508
sI178
I12509
sI179
I12510
sI180
I12511
sI181
I12512
sI182
I12513
sI183
I12514
sI184
I12515
sI185
I12516
sI186
I12517
sI187
I12518
sI188
I12519
sI189
I12520
sI190
I12521
sI191
I12522
sI192
I12523
sI193
I12524
sI194
I12525
sI195
I12527
sI196
I12528
sI197
I12529
sI198
I12530
sI199
I12531
sI200
I12532
sI201
I12533
sI202
I12534
sI203
I12535
sI204
I12536
sI205
I12537
sI206
I12538
sI207
I12539
sI208
I12540
sI209
I12541
sI210
I12542
sI211
I12543
sI212
I12544
sI213
I12545
sI214
I12546
sI215
I12547
sI216
I12548
sI217
I12549
sI218
I12550
sI219
I12551
sI220
I12552
sI221
I12553
sI222
I12554
sI223
I12555
sI224
I12556
sI225
I12557
sI226
I12558
sI227
I12559
sI228
I12560
sI229
I12561
sI230
I12562
sI231
I12563
sI232
I12564
sI233
I12565
sI234
I12566
sI235
I12567
sI236
I12568
sI237
I12569
sI238
I12570
sI239
I12571
sI240
I12572
sI241
I12573
sI242
I12574
sI243
I12575
sI244
I12576
sI245
I12577
sI246
I12578
sI247
I12579
sI248
I12580
sI249
I12581
sI250
I12582
sI251
I12583
sI252
I12584
sI253
I12585
sI254
I12586
ssI243
(dp85
I64
I12587
sI65
I12588
sI66
I12589
sI67
I12590
sI68
I12591
sI69
I12592
sI70
I12593
sI71
I12594
sI72
I12595
sI73
I12596
sI74
I12597
sI75
I12598
sI76
I12599
sI77
I12600
sI78
I12601
sI79
I12602
sI80
I12603
sI81
I12604
sI82
I12605
sI83
I12606
sI84
I12607
sI85
I12608
sI86
I12609
sI87
I12610
sI88
I12611
sI89
I12612
sI90
I12613
sI91
I12614
sI92
I12615
sI93
I12616
sI94
I12617
sI95
I12618
sI96
I12619
sI97
I12620
sI98
I12621
sI99
I12622
sI100
I12623
sI101
I12624
sI102
I12625
sI103
I12626
sI104
I12627
sI105
I12628
sI106
I12629
sI107
I12630
sI108
I12631
sI109
I12632
sI110
I12633
sI111
I12634
sI112
I12635
sI113
I12636
sI114
I12637
sI115
I12638
sI116
I12639
sI117
I12641
sI118
I12642
sI119
I12643
sI120
I12644
sI121
I12645
sI122
I12646
sI123
I12647
sI124
I12648
sI125
I12649
sI126
I12650
sI161
I12651
sI162
I12652
sI163
I12653
sI164
I12654
sI165
I12655
sI166
I12656
sI167
I12657
sI168
I12658
sI169
I12659
sI170
I12660
sI171
I12661
sI172
I12662
sI173
I12663
sI174
I12664
sI175
I12665
sI176
I12666
sI177
I12667
sI178
I12668
sI179
I12669
sI180
I12670
sI181
I12671
sI182
I12672
sI183
I12673
sI184
I12674
sI185
I12675
sI186
I12676
sI187
I12677
sI188
I12678
sI189
I12679
sI190
I12680
sI191
I12681
sI192
I12682
sI193
I12683
sI194
I12684
sI195
I12685
sI196
I12686
sI197
I12687
sI198
I12688
sI199
I12689
sI200
I12690
sI201
I12691
sI202
I12692
sI203
I12693
sI204
I12694
sI205
I12695
sI206
I12696
sI207
I12697
sI208
I12698
sI209
I12699
sI210
I12700
sI211
I12701
sI212
I12702
sI213
I12703
sI214
I12704
sI215
I12705
sI216
I12706
sI217
I12707
sI218
I12708
sI219
I12709
sI220
I12710
sI221
I12711
sI222
I12712
sI223
I12713
sI224
I12714
sI225
I12715
sI226
I12716
sI227
I12717
sI228
I12718
sI229
I12719
sI230
I12720
sI231
I12721
sI232
I12722
sI233
I12723
sI234
I12724
sI235
I12725
sI236
I12726
sI237
I12727
sI238
I12728
sI239
I12729
sI240
I12730
sI241
I12731
sI242
I12732
sI243
I12733
sI244
I12734
sI245
I12735
sI246
I12736
sI247
I12737
sI248
I12738
sI249
I12739
sI250
I12740
sI251
I12741
sI252
I12742
sI253
I12743
sI254
I12744
ssI244
(dp86
I64
I12745
sI65
I12746
sI66
I12747
sI67
I12748
sI68
I12749
sI69
I12750
sI70
I12751
sI71
I12752
sI72
I12753
sI73
I12754
sI74
I12755
sI75
I12756
sI76
I12757
sI77
I12758
sI78
I12759
sI79
I12760
sI80
I12761
sI81
I12762
sI82
I12763
sI83
I12764
sI84
I12765
sI85
I12766
sI86
I12767
sI87
I12768
sI88
I12769
sI89
I12770
sI90
I12771
sI91
I12772
sI92
I12773
sI93
I12774
sI94
I12775
sI95
I12776
sI96
I12777
sI97
I12778
sI98
I12779
sI99
I12780
sI100
I12781
sI101
I12782
sI102
I12784
sI103
I12785
sI104
I12786
sI105
I12787
sI106
I12788
sI107
I12789
sI108
I12790
sI109
I12791
sI110
I12792
sI111
I12793
sI112
I12794
sI113
I12795
sI114
I12796
sI115
I12797
sI116
I12798
sI117
I12799
sI118
I12800
sI119
I12801
sI120
I12802
sI121
I12803
sI122
I12804
sI123
I12805
sI124
I12806
sI125
I12807
sI126
I12808
sI161
I12809
sI162
I12810
sI163
I12811
sI164
I12812
sI165
I12813
sI166
I12814
sI167
I12815
sI168
I12816
sI169
I12817
sI170
I12818
sI171
I12819
sI172
I12820
sI173
I12821
sI174
I12822
sI175
I12823
sI176
I12824
sI177
I12825
sI178
I12826
sI179
I12827
sI180
I12828
sI181
I12526
sI182
I12829
sI183
I12830
sI184
I12831
sI185
I12832
sI186
I12833
sI187
I12834
sI188
I12835
sI189
I12836
sI190
I12837
sI191
I12838
sI192
I12839
sI193
I12840
sI194
I12841
sI195
I12842
sI196
I12843
sI197
I12844
sI198
I12845
sI199
I12846
sI200
I12847
sI201
I12848
sI202
I12849
sI203
I12850
sI204
I12851
sI205
I12852
sI206
I12853
sI207
I12854
sI208
I12855
sI209
I12856
sI210
I12857
sI211
I12858
sI212
I12859
sI213
I12860
sI214
I12861
sI215
I12862
sI216
I12863
sI217
I12864
sI218
I12865
sI219
I12866
sI220
I12867
sI221
I12868
sI222
I12869
sI223
I12870
sI224
I12871
sI225
I12872
sI226
I12873
sI227
I12874
sI228
I12875
sI229
I12876
sI230
I12877
sI231
I12878
sI232
I12879
sI233
I12880
sI234
I12881
sI235
I12882
sI236
I12883
sI237
I12884
sI238
I12885
sI239
I12886
sI240
I12887
sI241
I12888
sI242
I12889
sI243
I12890
sI244
I12891
sI245
I12892
sI246
I12893
sI247
I12894
sI248
I12895
sI249
I12896
sI250
I12897
sI251
I12898
sI252
I12899
sI253
I12901
sI254
I12902
ssI245
(dp87
I64
I12903
sI65
I12904
sI66
I12905
sI67
I12906
sI68
I12907
sI69
I12908
sI70
I12909
sI71
I12910
sI72
I12911
sI73
I12912
sI74
I12913
sI75
I12914
sI76
I12915
sI77
I12916
sI78
I12917
sI79
I12918
sI80
I12919
sI81
I12920
sI82
I12921
sI83
I12922
sI84
I12923
sI85
I12924
sI86
I12925
sI87
I12926
sI88
I12927
sI89
I12928
sI90
I12929
sI91
I12930
sI92
I12931
sI93
I12932
sI94
I12933
sI95
I12934
sI96
I12935
sI97
I12936
sI98
I12937
sI99
I12938
sI100
I12939
sI101
I12940
sI102
I12941
sI103
I12942
sI104
I12943
sI105
I12944
sI106
I12945
sI107
I12946
sI108
I12947
sI109
I12948
sI110
I12949
sI111
I12950
sI112
I12951
sI113
I12952
sI114
I12953
sI115
I12954
sI116
I12955
sI117
I12956
sI118
I12957
sI119
I12958
sI120
I12959
sI121
I12960
sI122
I12961
sI123
I12962
sI124
I12963
sI125
I12964
sI126
I12965
sI161
I12966
sI162
I12967
sI163
I12968
sI164
I12969
sI165
I12970
sI166
I12971
sI167
I12972
sI168
I12973
sI169
I12974
sI170
I12975
sI171
I12976
sI172
I12977
sI173
I12978
sI174
I12979
sI175
I12980
sI176
I12981
sI177
I12982
sI178
I12983
sI179
I12984
sI180
I12985
sI181
I12986
sI182
I12987
sI183
I12988
sI184
I12989
sI185
I12990
sI186
I12991
sI187
I12992
sI188
I12993
sI189
I12994
sI190
I12995
sI191
I12996
sI192
I12997
sI193
I12998
sI194
I12999
sI195
I13000
sI196
I13001
sI197
I13002
sI198
I13003
sI199
I13004
sI200
I13005
sI201
I13006
sI202
I13007
sI203
I13008
sI204
I13009
sI205
I13010
sI206
I13011
sI207
I13012
sI208
I13013
sI209
I13014
sI210
I13015
sI211
I13016
sI212
I13017
sI213
I13018
sI214
I13019
sI215
I13020
sI216
I13021
sI217
I13022
sI218
I13023
sI219
I13024
sI220
I13025
sI221
I13026
sI222
I13027
sI223
I13028
sI224
I13029
sI225
I13030
sI226
I13031
sI227
I13032
sI228
I13033
sI229
I13034
sI230
I13035
sI231
I13036
sI232
I13037
sI233
I13038
sI234
I13039
sI235
I13040
sI236
I13041
sI237
I13042
sI238
I13043
sI239
I13044
sI240
I13045
sI241
I13046
sI242
I13047
sI243
I13048
sI244
I13049
sI245
I13050
sI246
I13051
sI247
I13052
sI248
I13053
sI249
I13054
sI250
I13055
sI251
I13056
sI252
I13057
sI253
I13058
sI254
I13059
ssI246
(dp88
I64
I13060
sI65
I13061
sI66
I13062
sI67
I13063
sI68
I13064
sI69
I13065
sI70
I13066
sI71
I13067
sI72
I13068
sI73
I13069
sI74
I13070
sI75
I13071
sI76
I13072
sI77
I13073
sI78
I13074
sI79
I13075
sI80
I13076
sI81
I13077
sI82
I13078
sI83
I13079
sI84
I13080
sI85
I13081
sI86
I13082
sI87
I13083
sI88
I13084
sI89
I13085
sI90
I13086
sI91
I13087
sI92
I13088
sI93
I13089
sI94
I13090
sI95
I13091
sI96
I13092
sI97
I13093
sI98
I13094
sI99
I12900
sI100
I13095
sI101
I13096
sI102
I13097
sI103
I13098
sI104
I13099
sI105
I13100
sI106
I13101
sI107
I13102
sI108
I13103
sI109
I13104
sI110
I13105
sI111
I13106
sI112
I13107
sI113
I13108
sI114
I13109
sI115
I13110
sI116
I13111
sI117
I13112
sI118
I13113
sI119
I13114
sI120
I13115
sI121
I13116
sI122
I13117
sI123
I13118
sI124
I13119
sI125
I13120
sI126
I13121
sI161
I13122
sI162
I13123
sI163
I13124
sI164
I13125
sI165
I13126
sI166
I13127
sI167
I13128
sI168
I13129
sI169
I13130
sI170
I13131
sI171
I13132
sI172
I13133
sI173
I13134
sI174
I13135
sI175
I13136
sI176
I13137
sI177
I13138
sI178
I13139
sI179
I13140
sI180
I13141
sI181
I13142
sI182
I13143
sI183
I13144
sI184
I13145
sI185
I13146
sI186
I13147
sI187
I13148
sI188
I13149
sI189
I13150
sI190
I13151
sI191
I13152
sI192
I13153
sI193
I13154
sI194
I13155
sI195
I13156
sI196
I13157
sI197
I13158
sI198
I13159
sI199
I13160
sI200
I13161
sI201
I13162
sI202
I13163
sI203
I13164
sI204
I13165
sI205
I13166
sI206
I13167
sI207
I13168
sI208
I13169
sI209
I13170
sI210
I13171
sI211
I13172
sI212
I13173
sI213
I13174
sI214
I13175
sI215
I13176
sI216
I13177
sI217
I13178
sI218
I13179
sI219
I13180
sI220
I13181
sI221
I13182
sI222
I13183
sI223
I13184
sI224
I13185
sI225
I13186
sI226
I13187
sI227
I13188
sI228
I13189
sI229
I13190
sI230
I13191
sI231
I13192
sI232
I13193
sI233
I13194
sI234
I13195
sI235
I13196
sI236
I13197
sI237
I13198
sI238
I13199
sI239
I13200
sI240
I13201
sI241
I13202
sI242
I13203
sI243
I13204
sI244
I13205
sI245
I13206
sI246
I13207
sI247
I13208
sI248
I13209
sI249
I13210
sI250
I13211
sI251
I13212
sI252
I13213
sI253
I13214
sI254
I13215
ssI247
(dp89
I64
I13216
sI65
I13217
sI66
I13218
sI67
I13219
sI68
I13220
sI69
I13221
sI70
I13222
sI71
I13223
sI72
I13224
sI73
I13225
sI74
I13226
sI75
I13227
sI76
I13228
sI77
I13229
sI78
I13230
sI79
I13231
sI80
I13232
sI81
I13233
sI82
I13234
sI83
I13235
sI84
I13236
sI85
I13237
sI86
I13238
sI87
I13239
sI88
I13240
sI89
I13241
sI90
I13242
sI91
I13243
sI92
I13244
sI93
I13245
sI94
I13246
sI95
I13247
sI96
I13248
sI97
I13249
sI98
I13250
sI99
I13251
sI100
I13252
sI101
I13253
sI102
I13254
sI103
I13255
sI104
I13256
sI105
I13257
sI106
I13258
sI107
I13259
sI108
I13260
sI109
I13261
sI110
I13262
sI111
I13263
sI112
I13264
sI113
I13265
sI114
I13266
sI115
I13267
sI116
I13268
sI117
I13269
sI118
I13270
sI119
I13271
sI120
I13272
sI121
I13273
sI122
I13274
sI123
I13275
sI124
I13276
sI125
I13277
sI126
I13278
sI161
I13279
sI162
I13280
sI163
I13281
sI164
I13282
sI165
I13283
sI166
I13284
sI167
I13285
sI168
I13286
sI169
I13287
sI170
I13288
sI171
I13289
sI172
I13290
sI173
I13291
sI174
I13292
sI175
I13293
sI176
I13294
sI177
I13295
sI178
I13296
sI179
I13297
sI180
I13298
sI181
I13299
sI182
I13300
sI183
I13301
sI184
I13302
sI185
I13303
sI186
I13304
sI187
I13305
sI188
I13306
sI189
I13307
sI190
I13308
sI191
I13309
sI192
I13310
sI193
I13311
sI194
I13312
sI195
I13313
sI196
I13314
sI197
I13315
sI198
I13316
sI199
I13317
sI200
I13318
sI201
I13319
sI202
I13320
sI203
I13321
sI204
I13322
sI205
I13323
sI206
I13324
sI207
I13325
sI208
I13326
sI209
I13327
sI210
I13328
sI211
I13329
sI212
I13330
sI213
I13331
sI214
I13332
sI215
I13333
sI216
I13334
sI217
I13335
sI218
I13336
sI219
I13337
sI220
I13338
sI221
I13339
sI222
I13340
sI223
I13341
sI224
I13342
sI225
I13343
sI226
I13344
sI227
I13345
sI228
I13346
sI229
I13347
sI230
I13348
sI231
I13349
sI232
I13350
sI233
I13351
sI234
I13352
sI235
I13353
sI236
I13354
sI237
I13355
sI238
I13356
sI239
I13357
sI240
I13358
sI241
I13359
sI242
I13360
sI243
I13361
sI244
I13362
sI245
I13363
sI246
I13364
sI247
I13365
sI248
I13366
sI249
I13367
sI250
I13368
sI251
I13369
sI252
I13370
sI253
I13371
sI254
I13372
ssI248
(dp90
I64
I13373
sI65
I13374
sI66
I13375
sI67
I13376
sI68
I13377
sI69
I13378
sI70
I13379
sI71
I13380
sI72
I13381
sI73
I13382
sI74
I13383
sI75
I13384
sI76
I13385
sI77
I13386
sI78
I13387
sI79
I13388
sI80
I13389
sI81
I13390
sI82
I13391
sI83
I13392
sI84
I13393
sI85
I13394
sI86
I13395
sI87
I13396
sI88
I13397
sI89
I13398
sI90
I13399
sI91
I13400
sI92
I13401
sI93
I13402
sI94
I13403
sI95
I13404
sI96
I13405
sI97
I13406
sI98
I13407
sI99
I13408
sI100
I13409
sI101
I13410
sI102
I13411
sI103
I13412
sI104
I13413
sI105
I13414
sI106
I13415
sI107
I13416
sI108
I13417
sI109
I13418
sI110
I13419
sI111
I13420
sI112
I13421
sI113
I13422
sI114
I13423
sI115
I13424
sI116
I13425
sI117
I13426
sI118
I13427
sI119
I13428
sI120
I13429
sI121
I13430
sI122
I13431
sI123
I13432
sI124
I13433
sI125
I13434
sI126
I13435
sI161
I13436
sI162
I13437
sI163
I13438
sI164
I13439
sI165
I13440
sI166
I13441
sI167
I13442
sI168
I13443
sI169
I13444
sI170
I13445
sI171
I13446
sI172
I13447
sI173
I13448
sI174
I13449
sI175
I13450
sI176
I13451
sI177
I13452
sI178
I13453
sI179
I13454
sI180
I13455
sI181
I13456
sI182
I13457
sI183
I13458
sI184
I13459
sI185
I13460
sI186
I13461
sI187
I13462
sI188
I13463
sI189
I13464
sI190
I13465
sI191
I13466
sI192
I13467
sI193
I13468
sI194
I13469
sI195
I13470
sI196
I13471
sI197
I13472
sI198
I13473
sI199
I13474
sI200
I13475
sI201
I13476
sI202
I13477
sI203
I13478
sI204
I13479
sI205
I13480
sI206
I13481
sI207
I13482
sI208
I13483
sI209
I13484
sI210
I13485
sI211
I13486
sI212
I13487
sI213
I13488
sI214
I13489
sI215
I13490
sI216
I13491
sI217
I13492
sI218
I13493
sI219
I13494
sI220
I13495
sI221
I13496
sI222
I13497
sI223
I13498
sI224
I13499
sI225
I13500
sI226
I13501
sI227
I13502
sI228
I13503
sI229
I13504
sI230
I13505
sI231
I13506
sI232
I13507
sI233
I13508
sI234
I13509
sI235
I13510
sI236
I13511
sI237
I13512
sI238
I13513
sI239
I13514
sI240
I13515
sI241
I13516
sI242
I13517
sI243
I13518
sI244
I13519
sI245
I13520
sI246
I13521
sI247
I13522
sI248
I13523
sI249
I13524
sI250
I13525
sI251
I13526
sI252
I13527
sI253
I13528
sI254
I13529
ssI249
(dp91
I64
I13530
sI65
I13531
sI66
I13532
sI67
I13533
sI68
I13534
sI69
I13535
sI70
I13536
sI71
I13537
sI72
I13538
sI73
I13539
sI74
I13540
sI75
I13541
sI76
I13542
sI77
I13543
sI78
I13544
sI79
I13545
sI80
I13546
sI81
I13547
sI82
I13548
sI83
I13549
sI84
I13550
sI85
I13551
sI86
I13552
sI87
I13553
sI88
I13554
sI89
I13555
sI90
I13556
sI91
I13557
sI92
I13558
sI93
I13559
sI94
I13560
sI95
I13561
sI96
I13562
sI97
I13563
sI98
I13564
sI99
I13565
sI100
I13566
sI101
I13567
sI102
I13568
sI103
I13569
sI104
I13570
sI105
I13571
sI106
I13572
sI107
I13573
sI108
I13574
sI109
I13575
sI110
I13576
sI111
I13577
sI112
I13578
sI113
I13579
sI114
I13580
sI115
I13581
sI116
I13582
sI117
I13583
sI118
I13584
sI119
I13586
sI120
I13587
sI121
I13588
sI122
I13589
sI123
I13590
sI124
I13591
sI125
I13592
sI126
I13593
sI161
I13594
sI162
I13595
sI163
I13596
sI164
I13597
sI165
I13598
sI166
I13599
sI167
I13600
sI168
I13601
sI169
I13602
sI170
I13603
sI171
I13604
sI172
I13605
sI173
I13606
sI174
I13607
sI175
I13608
sI176
I13609
sI177
I13610
sI178
I13611
sI179
I13612
sI180
I13613
sI181
I13614
sI182
I13615
sI183
I13616
sI184
I13617
sI185
I13618
sI186
I13619
sI187
I13620
sI188
I13621
sI189
I13622
sI190
I13623
sI191
I13624
sI192
I13625
sI193
I13626
sI194
I13627
sI195
I13628
sI196
I13585
sI197
I13629
sI198
I13641
sI199
I13630
sI200
I13631
sI201
I13632
sI202
I13633
sI203
I13634
sI204
I13635
sI205
I13636
sI206
I13637
sI207
I13638
sI208
I13639
sI209
I13640
sI210
I13642
sI211
I13643
sI212
I13644
sI213
I13645
ssI253
I96
sI254
I97
sI255
I98
ss.