(dp1
S'IS_VERTICAL'
p2
I01
sS'CODE2CID'
p3
(dp4
I32
I1
sI33
I2
sI34
I3
sI35
I4
sI36
I5
sI37
I6
sI38
I7
sI39
I8
sI40
I9
sI41
I10
sI42
I11
sI43
I12
sI44
I13
sI45
I14
sI46
I15
sI47
I16
sI48
I17
sI49
I18
sI50
I19
sI51
I20
sI52
I21
sI53
I22
sI54
I23
sI55
I24
sI56
I25
sI57
I26
sI58
I27
sI59
I28
sI60
I29
sI61
I30
sI62
I31
sI63
I32
sI64
I33
sI65
I34
sI66
I35
sI67
I36
sI68
I37
sI69
I38
sI70
I39
sI71
I40
sI72
I41
sI73
I42
sI74
I43
sI75
I44
sI76
I45
sI77
I46
sI78
I47
sI79
I48
sI80
I49
sI81
I50
sI82
I51
sI83
I52
sI84
I53
sI85
I54
sI86
I55
sI87
I56
sI88
I57
sI89
I58
sI90
I59
sI91
I60
sI92
I61
sI93
I62
sI94
I63
sI95
I64
sI96
I65
sI97
I66
sI98
I67
sI99
I68
sI100
I69
sI101
I70
sI102
I71
sI103
I72
sI104
I73
sI105
I74
sI106
I75
sI107
I76
sI108
I77
sI109
I78
sI110
I79
sI111
I80
sI112
I81
sI113
I82
sI114
I83
sI115
I84
sI116
I85
sI117
I86
sI118
I87
sI119
I88
sI120
I89
sI121
I90
sI122
I91
sI123
I92
sI124
I93
sI125
I94
sI126
I95
sI161
(dp5
I161
I134
sI162
I135
sI163
I138
sI164
I139
sI75
I13646
sI76
I109
sI86
I312
sI88
I122
sI90
I13743
sI92
I13745
sI93
I130
sI94
I131
sI97
I134
sI98
I135
sI101
I138
sI102
I139
sI105
I142
sI106
I143
sI109
I146
sI110
I147
sI113
I150
sI114
I151
sI117
I154
sI118
I155
sI121
I158
sI122
I159
sI125
I130
sI126
I131
ssI198
(dp6
I228
I14097
sI229
I14098
sss.