(dp1
S'IS_VERTICAL'
p2
I01
sS'CODE2CID'
p3
(dp4
I32
I515
sI33
I327
sI34
I328
sI35
I329
sI36
I330
sI37
I331
sI38
I516
sI39
I517
sI40
I518
sI41
I519
sI42
I520
sI43
I521
sI44
I522
sI45
I523
sI46
I524
sI47
I525
sI48
I342
sI49
I526
sI50
I527
sI51
I528
sI52
I529
sI53
I530
sI54
I531
sI55
I532
sI56
I533
sI57
I534
sI58
I535
sI59
I536
sI60
I537
sI61
I538
sI62
I539
sI63
I540
sI64
I541
sI65
I542
sI66
I543
sI67
I544
sI68
I545
sI69
I546
sI70
I547
sI71
I548
sI72
I549
sI73
I550
sI74
I551
sI75
I552
sI76
I553
sI77
I554
sI78
I555
sI79
I556
sI80
I557
sI81
I558
sI82
I559
sI83
I560
sI84
I561
sI85
I562
sI86
I563
sI87
I564
sI88
I565
sI89
I566
sI90
I567
sI91
I568
sI92
I569
sI93
I570
sI94
I388
sI95
I389
sI96
I571
sI97
I572
sI98
I573
sI102
I574
sI103
I575
sI104
I576
sI105
I577
sI106
I578
sI107
I579
sI108
I580
sI109
I581
sI110
I582
sI111
I583
sI112
I584
sI113
I585
sI114
I586
sI115
I587
sI116
I588
sI117
I589
sI118
I590
sI119
I591
sI120
I592
sI121
I593
sI122
I594
sI123
I595
sI124
I596
sI125
I597
sI126
I598
ss.