(dp1
S'IS_VERTICAL'
p2
I00
sS'CODE2CID'
p3
(dp4
I32
I8094
sI33
I8095
sI34
I8096
sI35
I8097
sI36
I8098
sI37
I8099
sI38
I8100
sI39
I8101
sI40
I8102
sI41
I8103
sI42
I8104
sI43
I8105
sI44
I8106
sI45
I8107
sI46
I8108
sI47
I8109
sI48
I8110
sI49
I8111
sI50
I8112
sI51
I8113
sI52
I8114
sI53
I8115
sI54
I8116
sI55
I8117
sI56
I8118
sI57
I8119
sI58
I8120
sI59
I8121
sI60
I8122
sI61
I8123
sI62
I8124
sI63
I8125
sI64
I8126
sI65
I8127
sI66
I8128
sI67
I8129
sI68
I8130
sI69
I8131
sI70
I8132
sI71
I8133
sI72
I8134
sI73
I8135
sI74
I8136
sI75
I8137
sI76
I8138
sI77
I8139
sI78
I8140
sI79
I8141
sI80
I8142
sI81
I8143
sI82
I8144
sI83
I8145
sI84
I8146
sI85
I8147
sI86
I8148
sI87
I8149
sI88
I8150
sI89
I8151
sI90
I8152
sI91
I8153
sI92
I8154
sI93
I8155
sI94
I8156
sI95
I8157
sI96
I8158
sI97
I8159
sI98
I8160
sI99
I8161
sI100
I8162
sI101
I8163
sI102
I8164
sI103
I8165
sI104
I8166
sI105
I8167
sI106
I8168
sI107
I8169
sI108
I8170
sI109
I8171
sI110
I8172
sI111
I8173
sI112
I8174
sI113
I8175
sI114
I8176
sI115
I8177
sI116
I8178
sI117
I8179
sI118
I8180
sI119
I8181
sI120
I8182
sI121
I8183
sI122
I8184
sI123
I8185
sI124
I8186
sI125
I8187
sI126
I8188
sI161
(dp5
I161
I101
sI162
I102
sI163
I103
sI164
I104
sI165
I105
sI166
I106
sI167
I107
sI168
I108
sI169
I109
sI170
I110
sI171
I111
sI172
I112
sI173
I113
sI174
I114
sI175
I115
sI176
I116
sI177
I117
sI178
I118
sI179
I119
sI180
I120
sI181
I121
sI182
I122
sI183
I123
sI184
I124
sI185
I125
sI186
I126
sI187
I127
sI188
I128
sI189
I129
sI190
I130
sI191
I131
sI192
I132
sI193
I133
sI194
I134
sI195
I135
sI196
I136
sI197
I137
sI198
I138
sI199
I139
sI200
I140
sI201
I141
sI202
I142
sI203
I143
sI204
I144
sI205
I145
sI206
I146
sI207
I147
sI208
I148
sI209
I149
sI210
I150
sI211
I151
sI212
I152
sI213
I153
sI214
I154
sI215
I155
sI216
I156
sI217
I157
sI218
I158
sI219
I159
sI220
I160
sI221
I161
sI222
I162
sI223
I163
sI224
I164
sI225
I165
sI226
I166
sI227
I167
sI228
I168
sI229
I169
sI230
I170
sI231
I171
sI232
I172
sI233
I173
sI234
I174
sI235
I175
sI236
I176
sI237
I177
sI238
I178
sI239
I179
sI240
I180
sI241
I181
sI242
I182
sI243
I183
sI244
I184
sI245
I185
sI246
I186
sI247
I187
sI248
I188
sI249
I189
sI250
I190
sI251
I191
sI252
I192
sI253
I193
sI254
I194
ssI162
(dp6
I161
I195
sI162
I196
sI163
I197
sI164
I198
sI165
I199
sI166
I200
sI167
I201
sI168
I202
sI169
I203
sI170
I204
sI171
I205
sI172
I206
sI173
I207
sI174
I208
sI175
I209
sI176
I210
sI177
I211
sI178
I212
sI179
I213
sI180
I214
sI181
I215
sI182
I216
sI183
I217
sI184
I218
sI185
I219
sI186
I220
sI187
I221
sI188
I222
sI189
I223
sI190
I224
sI191
I225
sI192
I226
sI193
I227
sI194
I228
sI195
I229
sI196
I230
sI197
I231
sI198
I232
sI199
I233
sI200
I234
sI201
I235
sI202
I236
sI203
I237
sI204
I238
sI205
I239
sI206
I240
sI207
I241
sI208
I242
sI209
I243
sI210
I244
sI211
I245
sI212
I246
sI213
I247
sI214
I248
sI215
I249
sI216
I250
sI217
I251
sI218
I252
sI219
I253
sI220
I254
sI221
I255
sI222
I256
sI223
I257
sI224
I258
sI225
I259
sI226
I260
sI227
I261
sI228
I262
sI229
I263
ssI163
(dp7
I161
I264
sI162
I265
sI163
I266
sI164
I267
sI165
I268
sI166
I269
sI167
I270
sI168
I271
sI169
I272
sI170
I273
sI171
I274
sI172
I275
sI173
I276
sI174
I277
sI175
I278
sI176
I279
sI177
I280
sI178
I281
sI179
I282
sI180
I283
sI181
I284
sI182
I285
sI183
I286
sI184
I287
sI185
I288
sI186
I289
sI187
I290
sI188
I291
sI189
I292
sI190
I293
sI191
I294
sI192
I295
sI193
I296
sI194
I297
sI195
I298
sI196
I299
sI197
I300
sI198
I301
sI199
I302
sI200
I303
sI201
I304
sI202
I305
sI203
I306
sI204
I307
sI205
I308
sI206
I309
sI207
I310
sI208
I311
sI209
I312
sI210
I313
sI211
I314
sI212
I315
sI213
I316
sI214
I317
sI215
I318
sI216
I319
sI217
I320
sI218
I321
sI219
I322
sI220
I323
sI221
I324
sI222
I325
sI223
I326
sI224
I327
sI225
I328
sI226
I329
sI227
I330
sI228
I331
sI229
I332
sI230
I333
sI231
I334
sI232
I335
sI233
I336
sI234
I337
sI235
I338
sI236
I339
sI237
I340
sI238
I341
sI239
I342
sI240
I343
sI241
I344
sI242
I345
sI243
I346
sI244
I347
sI245
I348
sI246
I349
sI247
I350
sI248
I351
sI249
I352
sI250
I353
sI251
I354
sI252
I355
sI253
I356
sI254
I357
ssI164
(dp8
I161
I358
sI162
I359
sI163
I360
sI164
I361
sI165
I362
sI166
I363
sI167
I364
sI168
I365
sI169
I366
sI170
I367
sI171
I368
sI172
I369
sI173
I370
sI174
I371
sI175
I372
sI176
I373
sI177
I374
sI178
I375
sI179
I376
sI180
I377
sI181
I378
sI182
I379
sI183
I380
sI184
I381
sI185
I382
sI186
I383
sI187
I384
sI188
I385
sI189
I386
sI190
I387
sI191
I388
sI192
I389
sI193
I390
sI194
I391
sI195
I392
sI196
I393
sI197
I394
sI198
I395
sI199
I396
sI200
I397
sI201
I398
sI202
I399
sI203
I400
sI204
I401
sI205
I402
sI206
I403
sI207
I404
sI208
I405
sI209
I406
sI210
I407
sI211
I408
sI213
I409
sI214
I410
sI215
I411
sI216
I412
sI217
I413
sI218
I414
sI219
I415
sI220
I416
sI221
I417
sI222
I418
sI223
I419
sI224
I420
sI225
I421
sI226
I422
sI227
I423
sI228
I424
sI229
I425
sI230
I426
sI231
I427
sI232
I428
sI233
I429
sI234
I430
sI235
I431
sI236
I432
sI237
I433
sI238
I434
sI239
I435
sI240
I436
sI241
I437
sI242
I438
sI243
I439
sI244
I440
sI245
I441
sI246
I442
sI247
I443
sI248
I444
sI249
I445
sI250
I446
sI251
I447
sI252
I448
sI253
I449
sI254
I450
ssI165
(dp9
I161
I451
sI162
I452
sI163
I453
sI164
I454
sI165
I455
sI166
I456
sI167
I457
sI168
I458
sI169
I459
sI170
I460
sI176
I461
sI177
I462
sI178
I463
sI179
I464
sI180
I465
sI181
I466
sI182
I467
sI183
I468
sI184
I469
sI185
I470
sI193
I471
sI194
I472
sI195
I473
sI196
I474
sI197
I475
sI198
I476
sI199
I477
sI200
I478
sI201
I479
sI202
I480
sI203
I481
sI204
I482
sI205
I483
sI206
I484
sI207
I485
sI208
I486
sI209
I487
sI210
I488
sI211
I489
sI212
I490
sI213
I491
sI214
I492
sI215
I493
sI216
I494
sI225
I495
sI226
I496
sI227
I497
sI228
I498
sI229
I499
sI230
I500
sI231
I501
sI232
I502
sI233
I503
sI234
I504
sI235
I505
sI236
I506
sI237
I507
sI238
I508
sI239
I509
sI240
I510
sI241
I511
sI242
I512
sI243
I513
sI244
I514
sI245
I515
sI246
I516
sI247
I517
sI248
I518
ssI166
(dp10
I161
I519
sI162
I520
sI163
I521
sI164
I522
sI165
I523
sI166
I524
sI167
I525
sI168
I526
sI169
I527
sI170
I528
sI171
I529
sI172
I530
sI173
I531
sI174
I532
sI175
I533
sI176
I534
sI177
I535
sI178
I536
sI179
I537
sI180
I538
sI181
I539
sI182
I540
sI183
I541
sI184
I542
sI185
I543
sI186
I544
sI187
I545
sI188
I546
sI189
I547
sI190
I548
sI191
I549
sI192
I550
sI193
I551
sI194
I552
sI195
I553
sI196
I554
sI197
I555
sI198
I556
sI199
I557
sI200
I558
sI201
I559
sI202
I560
sI203
I561
sI204
I562
sI205
I563
sI206
I564
sI207
I565
sI208
I566
sI209
I567
sI210
I568
sI211
I569
sI212
I570
sI213
I571
sI214
I572
sI215
I573
sI216
I574
sI217
I575
sI218
I576
sI219
I577
sI220
I578
sI221
I579
sI222
I580
sI223
I581
sI224
I582
sI225
I583
sI226
I584
sI227
I585
sI228
I586
ssI167
(dp11
I161
I587
sI162
I588
sI163
I589
sI164
I590
sI165
I591
sI166
I592
sI167
I593
sI168
I594
sI169
I595
sI170
I596
sI171
I597
sI172
I598
sI173
I599
sI174
I600
sI175
I601
sI176
I602
sI177
I603
sI178
I604
sI179
I605
sI180
I606
sI181
I607
sI182
I608
sI183
I609
sI184
I610
sI185
I611
sI186
I612
sI187
I613
sI188
I614
sI189
I615
sI190
I616
sI191
I617
sI192
I618
sI193
I619
sI194
I620
sI195
I621
sI196
I622
sI197
I623
sI198
I624
sI199
I625
sI200
I626
sI201
I627
sI202
I628
sI203
I629
sI204
I630
sI205
I631
sI206
I632
sI207
I633
sI208
I634
sI209
I635
sI210
I636
sI211
I637
sI212
I638
sI213
I639
sI214
I640
sI215
I641
sI216
I642
sI217
I643
sI218
I644
sI219
I645
sI220
I646
sI221
I647
sI222
I648
sI223
I649
sI224
I650
sI225
I651
sI226
I652
sI227
I653
sI228
I654
sI229
I655
sI230
I656
sI231
I657
sI232
I658
sI233
I659
sI234
I660
sI235
I661
sI236
I662
sI237
I663
sI238
I664
sI239
I665
ssI168
(dp12
I161
I666
sI162
I667
sI163
I668
sI164
I669
sI166
I670
sI168
I671
sI169
I672
sI170
I673
sI171
I674
sI172
I675
sI173
I676
sI174
I677
sI175
I678
sI177
I679
sI178
I680
sI179
I681
sI180
I682
sI181
I683
sI182
I684
sI183
I685
sI184
I686
sI185
I687
sI186
I688
sI187
I689
sI188
I690
sI189
I691
sI190
I692
sI191
I693
sI192
I694
sI193
I695
sI194
I696
sI195
I697
sI196
I698
sI197
I699
sI198
I700
sI199
I701
sI200
I702
sI201
I703
sI202
I704
sI203
I705
sI204
I706
sI205
I707
sI206
I708
sI207
I709
sI208
I710
sI209
I711
sI210
I712
sI211
I713
sI212
I714
sI213
I715
sI214
I716
sI215
I717
sI216
I718
sI217
I719
sI218
I720
sI219
I721
sI220
I722
sI221
I723
sI222
I724
sI223
I725
sI224
I726
sI225
I727
sI226
I728
sI227
I729
sI228
I730
sI229
I731
sI230
I732
sI231
I733
sI232
I734
sI233
I735
sI234
I736
sI235
I737
sI236
I738
sI237
I739
sI238
I740
sI239
I741
sI240
I742
sI241
I743
sI242
I744
sI243
I745
sI244
I746
sI245
I747
sI246
I748
sI247
I749
sI248
I750
sI249
I751
sI250
I752
sI251
I753
sI252
I754
sI253
I755
sI254
I756
ssI169
(dp13
I161
I757
sI162
I758
sI163
I759
sI164
I760
sI165
I761
sI166
I762
sI167
I763
sI168
I764
sI169
I765
sI170
I766
sI171
I767
sI172
I768
sI173
I769
sI174
I770
sI175
I771
sI176
I772
sI177
I773
sI178
I774
sI179
I775
sI180
I776
sI181
I777
sI182
I778
sI183
I779
sI184
I780
sI185
I781
sI186
I782
sI187
I783
sI188
I784
sI189
I785
sI190
I786
sI191
I787
sI192
I788
sI193
I789
sI194
I790
sI195
I791
sI196
I792
sI197
I793
sI198
I794
sI199
I795
sI200
I796
sI201
I797
sI202
I798
sI203
I799
sI204
I800
sI205
I801
sI206
I802
sI207
I803
sI208
I804
sI209
I805
sI210
I806
sI211
I807
sI212
I808
sI213
I809
sI214
I810
sI215
I811
sI216
I812
sI217
I813
sI218
I814
sI219
I815
sI220
I816
sI221
I817
sI222
I818
sI223
I819
sI224
I820
sI225
I821
sI226
I822
sI227
I823
sI228
I824
sI229
I825
sI230
I826
sI231
I827
sI232
I828
sI233
I829
sI234
I830
sI235
I831
sI236
I832
sI237
I833
sI238
I834
sI239
I835
sI240
I836
sI241
I837
sI242
I838
sI243
I839
sI244
I840
sI245
I841
sI246
I842
sI247
I843
sI248
I844
sI249
I845
sI250
I846
sI251
I847
sI252
I848
sI253
I849
sI254
I850
ssI170
(dp14
I161
I851
sI162
I852
sI163
I853
sI164
I854
sI165
I855
sI166
I856
sI167
I857
sI168
I858
sI169
I859
sI170
I860
sI171
I861
sI172
I862
sI173
I863
sI174
I864
sI175
I865
sI176
I866
sI177
I867
sI178
I868
sI179
I869
sI180
I870
sI181
I871
sI182
I872
sI183
I873
sI184
I874
sI185
I875
sI186
I876
sI187
I877
sI188
I878
sI189
I879
sI190
I880
sI191
I881
sI192
I882
sI193
I883
sI194
I884
sI195
I885
sI196
I886
sI197
I887
sI198
I888
sI199
I889
sI200
I890
sI201
I891
sI202
I892
sI203
I893
sI204
I894
sI205
I895
sI206
I896
sI207
I897
sI208
I898
sI209
I899
sI210
I900
sI211
I901
sI212
I902
sI213
I903
sI214
I904
sI215
I905
sI216
I906
sI217
I907
sI218
I908
sI219
I909
sI220
I910
sI221
I911
sI222
I912
sI223
I913
sI224
I914
sI225
I915
sI226
I916
sI227
I917
sI228
I918
sI229
I919
sI230
I920
sI231
I921
sI232
I922
sI233
I923
sI234
I924
sI235
I925
sI236
I926
sI237
I927
sI238
I928
sI239
I929
sI240
I930
sI241
I931
sI242
I932
sI243
I933
ssI171
(dp15
I161
I934
sI162
I935
sI163
I936
sI164
I937
sI165
I938
sI166
I939
sI167
I940
sI168
I941
sI169
I942
sI170
I943
sI171
I944
sI172
I945
sI173
I946
sI174
I947
sI175
I948
sI176
I949
sI177
I950
sI178
I951
sI179
I952
sI180
I953
sI181
I954
sI182
I955
sI183
I956
sI184
I957
sI185
I958
sI186
I959
sI187
I960
sI188
I961
sI189
I962
sI190
I963
sI191
I964
sI192
I965
sI193
I966
sI194
I967
sI195
I968
sI196
I969
sI197
I970
sI198
I971
sI199
I972
sI200
I973
sI201
I974
sI202
I975
sI203
I976
sI204
I977
sI205
I978
sI206
I979
sI207
I980
sI208
I981
sI209
I982
sI210
I983
sI211
I984
sI212
I985
sI213
I986
sI214
I987
sI215
I988
sI216
I989
sI217
I990
sI218
I991
sI219
I992
sI220
I993
sI221
I994
sI222
I995
sI223
I996
sI224
I997
sI225
I998
sI226
I999
sI227
I1000
sI228
I1001
sI229
I1002
sI230
I1003
sI231
I1004
sI232
I1005
sI233
I1006
sI234
I1007
sI235
I1008
sI236
I1009
sI237
I1010
sI238
I1011
sI239
I1012
sI240
I1013
sI241
I1014
sI242
I1015
sI243
I1016
sI244
I1017
sI245
I1018
sI246
I1019
ssI172
(dp16
I161
I1020
sI162
I1021
sI163
I1022
sI164
I1023
sI165
I1024
sI166
I1025
sI167
I1026
sI168
I1027
sI169
I1028
sI170
I1029
sI171
I1030
sI172
I1031
sI173
I1032
sI174
I1033
sI175
I1034
sI176
I1035
sI177
I1036
sI178
I1037
sI179
I1038
sI180
I1039
sI181
I1040
sI182
I1041
sI183
I1042
sI184
I1043
sI185
I1044
sI186
I1045
sI187
I1046
sI188
I1047
sI189
I1048
sI190
I1049
sI191
I1050
sI192
I1051
sI193
I1052
sI209
I1053
sI210
I1054
sI211
I1055
sI212
I1056
sI213
I1057
sI214
I1058
sI215
I1059
sI216
I1060
sI217
I1061
sI218
I1062
sI219
I1063
sI220
I1064
sI221
I1065
sI222
I1066
sI223
I1067
sI224
I1068
sI225
I1069
sI226
I1070
sI227
I1071
sI228
I1072
sI229
I1073
sI230
I1074
sI231
I1075
sI232
I1076
sI233
I1077
sI234
I1078
sI235
I1079
sI236
I1080
sI237
I1081
sI238
I1082
sI239
I1083
sI240
I1084
sI241
I1085
ssI176
(dp17
I161
I1086
sI162
I1087
sI163
I1088
sI164
I1089
sI165
I1090
sI166
I1091
sI167
I1092
sI168
I1093
sI169
I1094
sI170
I1095
sI171
I1096
sI172
I1097
sI173
I1098
sI174
I1099
sI175
I1100
sI176
I1101
sI177
I1102
sI178
I1103
sI179
I1104
sI180
I1105
sI181
I1106
sI182
I1107
sI183
I1108
sI184
I1109
sI185
I1110
sI186
I1111
sI187
I1112
sI188
I1113
sI189
I1114
sI190
I1115
sI191
I1116
sI192
I1117
sI193
I1118
sI194
I1119
sI195
I1120
sI196
I1121
sI197
I1122
sI198
I1123
sI199
I1124
sI200
I1125
sI201
I1126
sI202
I1127
sI203
I1128
sI204
I1129
sI205
I1130
sI206
I1131
sI207
I1132
sI208
I1133
sI209
I1134
sI210
I1135
sI211
I1136
sI212
I1137
sI213
I1138
sI214
I1139
sI215
I1140
sI216
I1141
sI217
I1142
sI218
I1143
sI219
I1144
sI220
I1145
sI221
I1146
sI222
I1147
sI223
I1148
sI224
I1149
sI225
I1150
sI226
I1151
sI227
I1152
sI228
I1153
sI229
I1154
sI230
I1155
sI231
I1156
sI232
I1157
sI233
I1158
sI234
I1159
sI235
I1160
sI236
I1161
sI237
I1162
sI238
I1163
sI239
I1164
sI240
I1165
sI241
I1166
sI242
I1167
sI243
I1168
sI244
I1169
sI245
I1170
sI246
I1171
sI247
I1172
sI248
I1173
sI249
I1174
sI250
I1175
sI251
I1176
sI252
I1177
sI253
I1178
sI254
I1179
ssI177
(dp18
I161
I1180
sI162
I1181
sI163
I1182
sI164
I1183
sI165
I1184
sI166
I1185
sI167
I1186
sI168
I1187
sI169
I1188
sI170
I1189
sI171
I1190
sI172
I1191
sI173
I1192
sI174
I1193
sI175
I1194
sI176
I1195
sI177
I1196
sI178
I1197
sI179
I1198
sI180
I1199
sI181
I1200
sI182
I1201
sI183
I1202
sI184
I1203
sI185
I1204
sI186
I1205
sI187
I1206
sI188
I1207
sI189
I1208
sI190
I1209
sI191
I1210
sI192
I1211
sI193
I1212
sI194
I1213
sI195
I1214
sI196
I1215
sI197
I1216
sI198
I1217
sI199
I1218
sI200
I1219
sI201
I1220
sI202
I1221
sI203
I1222
sI204
I1223
sI205
I1224
sI206
I1225
sI207
I1226
sI208
I1227
sI209
I1228
sI210
I1229
sI211
I1230
sI212
I1231
sI213
I1232
sI214
I1233
sI215
I1234
sI216
I1235
sI217
I1236
sI218
I1237
sI219
I1238
sI220
I1239
sI221
I1240
sI222
I1241
sI223
I1242
sI224
I1243
sI225
I1244
sI226
I1245
sI227
I1246
sI228
I1247
sI229
I1248
sI230
I1249
sI231
I1250
sI232
I1251
sI233
I1252
sI234
I1253
sI235
I1254
sI236
I1255
sI237
I1256
sI238
I1257
sI239
I1258
sI240
I1259
sI241
I1260
sI242
I1261
sI243
I1262
sI244
I1263
sI245
I1264
sI246
I1265
sI247
I1266
sI248
I1267
sI249
I1268
sI250
I1269
sI251
I1270
sI252
I1271
sI253
I1272
sI254
I1273
ssI178
(dp19
I161
I1274
sI162
I1275
sI163
I1276
sI164
I1277
sI165
I1278
sI166
I1279
sI167
I1280
sI168
I1281
sI169
I1282
sI170
I1283
sI171
I1284
sI172
I1285
sI173
I1286
sI174
I1287
sI175
I1288
sI176
I1289
sI177
I1290
sI178
I1291
sI179
I1292
sI180
I1293
sI181
I1294
sI182
I1295
sI183
I1296
sI184
I1297
sI185
I1298
sI186
I1299
sI187
I1300
sI188
I1301
sI189
I1302
sI190
I1303
sI191
I1304
sI192
I1305
sI193
I1306
sI194
I1307
sI195
I1308
sI196
I1309
sI197
I1310
sI198
I1311
sI199
I1312
sI200
I1313
sI201
I1314
sI202
I1315
sI203
I1316
sI204
I1317
sI205
I1318
sI206
I1319
sI207
I1320
sI208
I1321
sI209
I1322
sI210
I1323
sI211
I1324
sI212
I1325
sI213
I1326
sI214
I1327
sI215
I1328
sI216
I1329
sI217
I1330
sI218
I1331
sI219
I1332
sI220
I1333
sI221
I1334
sI222
I1335
sI223
I1336
sI224
I1337
sI225
I1338
sI226
I1339
sI227
I1340
sI228
I1341
sI229
I1342
sI230
I1343
sI231
I1344
sI232
I1345
sI233
I1346
sI234
I1347
sI235
I1348
sI236
I1349
sI237
I1350
sI238
I1351
sI239
I1352
sI240
I1353
sI241
I1354
sI242
I1355
sI243
I1356
sI244
I1357
sI245
I1358
sI246
I1359
sI247
I1360
sI248
I1361
sI249
I1362
sI250
I1363
sI251
I1364
sI252
I1365
sI253
I1366
sI254
I1367
ssI179
(dp20
I161
I1368
sI162
I1369
sI163
I1370
sI164
I1371
sI165
I1372
sI166
I1373
sI167
I1374
sI168
I1375
sI169
I1376
sI170
I1377
sI171
I1378
sI172
I1379
sI173
I1380
sI174
I1381
sI175
I1382
sI176
I1383
sI177
I1384
sI178
I1385
sI179
I1386
sI180
I1387
sI181
I1388
sI182
I1389
sI183
I1390
sI184
I1391
sI185
I1392
sI186
I1393
sI187
I1394
sI188
I1395
sI189
I1396
sI190
I1397
sI191
I1398
sI192
I1399
sI193
I1400
sI194
I1401
sI195
I1402
sI196
I1403
sI197
I1404
sI198
I1405
sI199
I1406
sI200
I1407
sI201
I1408
sI202
I1409
sI203
I1410
sI204
I1411
sI205
I1412
sI206
I1413
sI207
I1414
sI208
I1415
sI209
I1416
sI210
I1417
sI211
I1418
sI212
I1419
sI213
I1420
sI214
I1421
sI215
I1422
sI216
I1423
sI217
I1424
sI218
I1425
sI219
I1426
sI220
I1427
sI221
I1428
sI222
I1429
sI223
I1430
sI224
I1431
sI225
I1432
sI226
I1433
sI227
I1434
sI228
I1435
sI229
I1436
sI230
I1437
sI231
I1438
sI232
I1439
sI233
I1440
sI234
I1441
sI235
I1442
sI236
I1443
sI237
I1444
sI238
I1445
sI239
I1446
sI240
I1447
sI241
I1448
sI242
I1449
sI243
I1450
sI244
I1451
sI245
I1452
sI246
I1453
sI247
I1454
sI248
I1455
sI249
I1456
sI250
I1457
sI251
I1458
sI252
I1459
sI253
I1460
sI254
I1461
ssI180
(dp21
I161
I1462
sI162
I1463
sI163
I1464
sI164
I1465
sI165
I1466
sI166
I1467
sI167
I1468
sI168
I1469
sI169
I1470
sI170
I1471
sI171
I1472
sI172
I1473
sI173
I1474
sI174
I1475
sI175
I1476
sI176
I1477
sI177
I1478
sI178
I1479
sI179
I1480
sI180
I1481
sI181
I1482
sI182
I1483
sI183
I1484
sI184
I1485
sI185
I1486
sI186
I1487
sI187
I1488
sI188
I1489
sI189
I1490
sI190
I1491
sI191
I1492
sI192
I1493
sI193
I1494
sI194
I1495
sI195
I1496
sI196
I1497
sI197
I1498
sI198
I1499
sI199
I1500
sI200
I1501
sI201
I1502
sI202
I1503
sI203
I1504
sI204
I1505
sI205
I1506
sI206
I1507
sI207
I1508
sI208
I1509
sI209
I1510
sI210
I1511
sI211
I1512
sI212
I1513
sI213
I1514
sI214
I1515
sI215
I1516
sI216
I1517
sI217
I1518
sI218
I1519
sI219
I1520
sI220
I1521
sI221
I1522
sI222
I1523
sI223
I1524
sI224
I1525
sI225
I1526
sI226
I1527
sI227
I1528
sI228
I1529
sI229
I1530
sI230
I1531
sI231
I1532
sI232
I1533
sI233
I1534
sI234
I1535
sI235
I1536
sI236
I1537
sI237
I1538
sI238
I1539
sI239
I1540
sI240
I1541
sI241
I1542
sI242
I1543
sI243
I1544
sI244
I1545
sI245
I1546
sI246
I1547
sI247
I1548
sI248
I1549
sI249
I1550
sI250
I1551
sI251
I1552
sI252
I1553
sI253
I1554
sI254
I1555
ssI181
(dp22
I161
I1556
sI162
I1557
sI163
I1558
sI164
I1559
sI165
I1560
sI166
I1561
sI167
I1562
sI168
I1563
sI169
I1564
sI170
I1565
sI171
I1566
sI172
I1567
sI173
I1568
sI174
I1569
sI175
I1570
sI176
I1571
sI177
I1572
sI178
I1573
sI179
I1574
sI180
I1575
sI181
I1576
sI182
I1577
sI183
I1578
sI184
I1579
sI185
I1580
sI186
I1581
sI187
I1582
sI188
I1583
sI189
I1584
sI190
I1585
sI191
I1586
sI192
I1587
sI193
I1588
sI194
I1589
sI195
I1590
sI196
I1591
sI197
I1592
sI198
I1593
sI199
I1594
sI200
I1595
sI201
I1596
sI202
I1597
sI203
I1598
sI204
I1599
sI205
I1600
sI206
I1601
sI207
I1602
sI208
I1603
sI209
I1604
sI210
I1605
sI211
I1606
sI212
I1607
sI213
I1608
sI214
I1609
sI215
I1610
sI216
I1611
sI217
I1612
sI218
I1613
sI219
I1614
sI220
I1615
sI221
I1616
sI222
I1617
sI223
I1618
sI224
I1619
sI225
I1620
sI226
I1621
sI227
I1622
sI228
I1623
sI229
I1624
sI230
I1625
sI231
I1626
sI232
I1627
sI233
I1628
sI234
I1629
sI235
I1630
sI236
I1631
sI237
I1632
sI238
I1633
sI239
I1634
sI240
I1635
sI241
I1636
sI242
I1637
sI243
I1638
sI244
I1639
sI245
I1640
sI246
I1641
sI247
I1642
sI248
I1643
sI249
I1644
sI250
I1645
sI251
I1646
sI252
I1647
sI253
I1648
sI254
I1649
ssI182
(dp23
I161
I1650
sI162
I1651
sI163
I1652
sI164
I1653
sI165
I1654
sI166
I1655
sI167
I1656
sI168
I1657
sI169
I1658
sI170
I1659
sI171
I1660
sI172
I1661
sI173
I1662
sI174
I1663
sI175
I1664
sI176
I1665
sI177
I1666
sI178
I1667
sI179
I1668
sI180
I1669
sI181
I1670
sI182
I1671
sI183
I1672
sI184
I1673
sI185
I1674
sI186
I1675
sI187
I1676
sI188
I1677
sI189
I1678
sI190
I1679
sI191
I1680
sI192
I1681
sI193
I1682
sI194
I1683
sI195
I1684
sI196
I1685
sI197
I1686
sI198
I1687
sI199
I1688
sI200
I1689
sI201
I1690
sI202
I1691
sI203
I1692
sI204
I1693
sI205
I1694
sI206
I1695
sI207
I1696
sI208
I1697
sI209
I1698
sI210
I1699
sI211
I1700
sI212
I1701
sI213
I1702
sI214
I1703
sI215
I1704
sI216
I1705
sI217
I1706
sI218
I1707
sI219
I1708
sI220
I1709
sI221
I1710
sI222
I1711
sI223
I1712
sI224
I1713
sI225
I1714
sI226
I1715
sI227
I1716
sI228
I1717
sI229
I1718
sI230
I1719
sI231
I1720
sI232
I1721
sI233
I1722
sI234
I1723
sI235
I1724
sI236
I1725
sI237
I1726
sI238
I1727
sI239
I1728
sI240
I1729
sI241
I1730
sI242
I1731
sI243
I1732
sI244
I1733
sI245
I1734
sI246
I1735
sI247
I1736
sI248
I1737
sI249
I1738
sI250
I1739
sI251
I1740
sI252
I1741
sI253
I1742
sI254
I1743
ssI183
(dp24
I161
I1744
sI162
I1745
sI163
I1746
sI164
I1747
sI165
I1748
sI166
I1749
sI167
I1750
sI168
I1751
sI169
I1752
sI170
I1753
sI171
I1754
sI172
I1755
sI173
I1756
sI174
I1757
sI175
I1758
sI176
I1759
sI177
I1760
sI178
I1761
sI179
I1762
sI180
I1763
sI181
I1764
sI182
I1765
sI183
I1766
sI184
I1767
sI185
I1768
sI186
I1769
sI187
I1770
sI188
I1771
sI189
I1772
sI190
I1773
sI191
I1774
sI192
I1775
sI193
I1776
sI194
I1777
sI195
I1778
sI196
I1779
sI197
I1780
sI198
I1781
sI199
I1782
sI200
I1783
sI201
I1784
sI202
I1785
sI203
I1786
sI204
I1787
sI205
I1788
sI206
I1789
sI207
I1790
sI208
I1791
sI209
I1792
sI210
I1793
sI211
I1794
sI212
I1795
sI213
I1796
sI214
I1797
sI215
I1798
sI216
I1799
sI217
I1800
sI218
I1801
sI219
I1802
sI220
I1803
sI221
I1804
sI222
I1805
sI223
I1806
sI224
I1807
sI225
I1808
sI226
I1809
sI227
I1810
sI228
I1811
sI229
I1812
sI230
I1813
sI231
I1814
sI232
I1815
sI233
I1816
sI234
I1817
sI235
I1818
sI236
I1819
sI237
I1820
sI238
I1821
sI239
I1822
sI240
I1823
sI241
I1824
sI242
I1825
sI243
I1826
sI244
I1827
sI245
I1828
sI246
I1829
sI247
I1830
sI248
I1831
sI249
I1832
sI250
I1833
sI251
I1834
sI252
I1835
sI253
I1836
sI254
I1837
ssI184
(dp25
I161
I1838
sI162
I1839
sI163
I1840
sI164
I1841
sI165
I1842
sI166
I1843
sI167
I1844
sI168
I1845
sI169
I1846
sI170
I1847
sI171
I1848
sI172
I1849
sI173
I1850
sI174
I1851
sI175
I1852
sI176
I1853
sI177
I1854
sI178
I1855
sI179
I1856
sI180
I1857
sI181
I1858
sI182
I1859
sI183
I1860
sI184
I1861
sI185
I1862
sI186
I1863
sI187
I1864
sI188
I1865
sI189
I1866
sI190
I1867
sI191
I1868
sI192
I1869
sI193
I1870
sI194
I1871
sI195
I1872
sI196
I1873
sI197
I1874
sI198
I1875
sI199
I1876
sI200
I1877
sI201
I1878
sI202
I1879
sI203
I1880
sI204
I1881
sI205
I1882
sI206
I1883
sI207
I1884
sI208
I1885
sI209
I1886
sI210
I1887
sI211
I1888
sI212
I1889
sI213
I1890
sI214
I1891
sI215
I1892
sI216
I1893
sI217
I1894
sI218
I1895
sI219
I1896
sI220
I1897
sI221
I1898
sI222
I1899
sI223
I1900
sI224
I1901
sI225
I1902
sI226
I1903
sI227
I1904
sI228
I1905
sI229
I1906
sI230
I1907
sI231
I1908
sI232
I1909
sI233
I1910
sI234
I1911
sI235
I1912
sI236
I1913
sI237
I1914
sI238
I1915
sI239
I1916
sI240
I1917
sI241
I1918
sI242
I1919
sI243
I1920
sI244
I1921
sI245
I1922
sI246
I1923
sI247
I1924
sI248
I1925
sI249
I1926
sI250
I1927
sI251
I1928
sI252
I1929
sI253
I1930
sI254
I1931
ssI185
(dp26
I161
I1932
sI162
I1933
sI163
I1934
sI164
I1935
sI165
I1936
sI166
I1937
sI167
I1938
sI168
I1939
sI169
I1940
sI170
I1941
sI171
I1942
sI172
I1943
sI173
I1944
sI174
I1945
sI175
I1946
sI176
I1947
sI177
I1948
sI178
I1949
sI179
I1950
sI180
I1951
sI181
I1952
sI182
I1953
sI183
I1954
sI184
I1955
sI185
I1956
sI186
I1957
sI187
I1958
sI188
I1959
sI189
I1960
sI190
I1961
sI191
I1962
sI192
I1963
sI193
I1964
sI194
I1965
sI195
I1966
sI196
I1967
sI197
I1968
sI198
I1969
sI199
I1970
sI200
I1971
sI201
I1972
sI202
I1973
sI203
I1974
sI204
I1975
sI205
I1976
sI206
I1977
sI207
I1978
sI208
I1979
sI209
I1980
sI210
I1981
sI211
I1982
sI212
I1983
sI213
I1984
sI214
I1985
sI215
I1986
sI216
I1987
sI217
I1988
sI218
I1989
sI219
I1990
sI220
I1991
sI221
I1992
sI222
I1993
sI223
I1994
sI224
I1995
sI225
I1996
sI226
I1997
sI227
I1998
sI228
I1999
sI229
I2000
sI230
I2001
sI231
I2002
sI232
I2003
sI233
I2004
sI234
I2005
sI235
I2006
sI236
I2007
sI237
I2008
sI238
I2009
sI239
I2010
sI240
I2011
sI241
I2012
sI242
I2013
sI243
I2014
sI244
I2015
sI245
I2016
sI246
I2017
sI247
I2018
sI248
I2019
sI249
I2020
sI250
I2021
sI251
I2022
sI252
I2023
sI253
I2024
sI254
I2025
ssI186
(dp27
I161
I2026
sI162
I2027
sI163
I2028
sI164
I2029
sI165
I2030
sI166
I2031
sI167
I2032
sI168
I2033
sI169
I2034
sI170
I2035
sI171
I2036
sI172
I2037
sI173
I2038
sI174
I2039
sI175
I2040
sI176
I2041
sI177
I2042
sI178
I2043
sI179
I2044
sI180
I2045
sI181
I2046
sI182
I2047
sI183
I2048
sI184
I2049
sI185
I2050
sI186
I2051
sI187
I2052
sI188
I2053
sI189
I2054
sI190
I2055
sI191
I2056
sI192
I2057
sI193
I2058
sI194
I2059
sI195
I2060
sI196
I2061
sI197
I2062
sI198
I2063
sI199
I2064
sI200
I2065
sI201
I2066
sI202
I2067
sI203
I2068
sI204
I2069
sI205
I2070
sI206
I2071
sI207
I2072
sI208
I2073
sI209
I2074
sI210
I2075
sI211
I2076
sI212
I2077
sI213
I2078
sI214
I2079
sI215
I2080
sI216
I2081
sI217
I2082
sI218
I2083
sI219
I2084
sI220
I2085
sI221
I2086
sI222
I2087
sI223
I2088
sI224
I2089
sI225
I2090
sI226
I2091
sI227
I2092
sI228
I2093
sI229
I2094
sI230
I2095
sI231
I2096
sI232
I2097
sI233
I2098
sI234
I2099
sI235
I2100
sI236
I2101
sI237
I2102
sI238
I2103
sI239
I2104
sI240
I2105
sI241
I2106
sI242
I2107
sI243
I2108
sI244
I2109
sI245
I2110
sI246
I2111
sI247
I2112
sI248
I2113
sI249
I2114
sI250
I2115
sI251
I2116
sI252
I2117
sI253
I2118
sI254
I2119
ssI187
(dp28
I161
I2120
sI162
I2121
sI163
I2122
sI164
I2123
sI165
I2124
sI166
I2125
sI167
I2126
sI168
I2127
sI169
I2128
sI170
I2129
sI171
I2130
sI172
I2131
sI173
I2132
sI174
I2133
sI175
I2134
sI176
I2135
sI177
I2136
sI178
I2137
sI179
I2138
sI180
I2139
sI181
I2140
sI182
I2141
sI183
I2142
sI184
I2143
sI185
I2144
sI186
I2145
sI187
I2146
sI188
I2147
sI189
I2148
sI190
I2149
sI191
I2150
sI192
I2151
sI193
I2152
sI194
I2153
sI195
I2154
sI196
I2155
sI197
I2156
sI198
I2157
sI199
I2158
sI200
I2159
sI201
I2160
sI202
I2161
sI203
I2162
sI204
I2163
sI205
I2164
sI206
I2165
sI207
I2166
sI208
I2167
sI209
I2168
sI210
I2169
sI211
I2170
sI212
I2171
sI213
I2172
sI214
I2173
sI215
I2174
sI216
I2175
sI217
I2176
sI218
I2177
sI219
I2178
sI220
I2179
sI221
I2180
sI222
I2181
sI223
I2182
sI224
I2183
sI225
I2184
sI226
I2185
sI227
I2186
sI228
I2187
sI229
I2188
sI230
I2189
sI231
I2190
sI232
I2191
sI233
I2192
sI234
I2193
sI235
I2194
sI236
I2195
sI237
I2196
sI238
I2197
sI239
I2198
sI240
I2199
sI241
I2200
sI242
I2201
sI243
I2202
sI244
I2203
sI245
I2204
sI246
I2205
sI247
I2206
sI248
I2207
sI249
I2208
sI250
I2209
sI251
I2210
sI252
I2211
sI253
I2212
sI254
I2213
ssI188
(dp29
I161
I2214
sI162
I2215
sI163
I2216
sI164
I2217
sI165
I2218
sI166
I2219
sI167
I2220
sI168
I2221
sI169
I2222
sI170
I2223
sI171
I2224
sI172
I2225
sI173
I2226
sI174
I2227
sI175
I2228
sI176
I2229
sI177
I2230
sI178
I2231
sI179
I2232
sI180
I2233
sI181
I2234
sI182
I2235
sI183
I2236
sI184
I2237
sI185
I2238
sI186
I2239
sI187
I2240
sI188
I2241
sI189
I2242
sI190
I2243
sI191
I2244
sI192
I2245
sI193
I2246
sI194
I2247
sI195
I2248
sI196
I2249
sI197
I2250
sI198
I2251
sI199
I2252
sI200
I2253
sI201
I2254
sI202
I2255
sI203
I2256
sI204
I2257
sI205
I2258
sI206
I2259
sI207
I2260
sI208
I2261
sI209
I2262
sI210
I2263
sI211
I2264
sI212
I2265
sI213
I2266
sI214
I2267
sI215
I2268
sI216
I2269
sI217
I2270
sI218
I2271
sI219
I2272
sI220
I2273
sI221
I2274
sI222
I2275
sI223
I2276
sI224
I2277
sI225
I2278
sI226
I2279
sI227
I2280
sI228
I2281
sI229
I2282
sI230
I2283
sI231
I2284
sI232
I2285
sI233
I2286
sI234
I2287
sI235
I2288
sI236
I2289
sI237
I2290
sI238
I2291
sI239
I2292
sI240
I2293
sI241
I2294
sI242
I2295
sI243
I2296
sI244
I2297
sI245
I2298
sI246
I2299
sI247
I2300
sI248
I2301
sI249
I2302
sI250
I2303
sI251
I2304
sI252
I2305
sI253
I2306
sI254
I2307
ssI189
(dp30
I161
I2308
sI162
I2309
sI163
I2310
sI164
I2311
sI165
I2312
sI166
I2313
sI167
I2314
sI168
I2315
sI169
I2316
sI170
I2317
sI171
I2318
sI172
I2319
sI173
I2320
sI174
I2321
sI175
I2322
sI176
I2323
sI177
I2324
sI178
I2325
sI179
I2326
sI180
I2327
sI181
I2328
sI182
I2329
sI183
I2330
sI184
I2331
sI185
I2332
sI186
I2333
sI187
I2334
sI188
I2335
sI189
I2336
sI190
I2337
sI191
I2338
sI192
I2339
sI193
I2340
sI194
I2341
sI195
I2342
sI196
I2343
sI197
I2344
sI198
I2345
sI199
I2346
sI200
I2347
sI201
I2348
sI202
I2349
sI203
I2350
sI204
I2351
sI205
I2352
sI206
I2353
sI207
I2354
sI208
I2355
sI209
I2356
sI210
I2357
sI211
I2358
sI212
I2359
sI213
I2360
sI214
I2361
sI215
I2362
sI216
I2363
sI217
I2364
sI218
I2365
sI219
I2366
sI220
I2367
sI221
I2368
sI222
I2369
sI223
I2370
sI224
I2371
sI225
I2372
sI226
I2373
sI227
I2374
sI228
I2375
sI229
I2376
sI230
I2377
sI231
I2378
sI232
I2379
sI233
I2380
sI234
I2381
sI235
I2382
sI236
I2383
sI237
I2384
sI238
I2385
sI239
I2386
sI240
I2387
sI241
I2388
sI242
I2389
sI243
I2390
sI244
I2391
sI245
I2392
sI246
I2393
sI247
I2394
sI248
I2395
sI249
I2396
sI250
I2397
sI251
I2398
sI252
I2399
sI253
I2400
sI254
I2401
ssI190
(dp31
I161
I2402
sI162
I2403
sI163
I2404
sI164
I2405
sI165
I2406
sI166
I2407
sI167
I2408
sI168
I2409
sI169
I2410
sI170
I2411
sI171
I2412
sI172
I2413
sI173
I2414
sI174
I2415
sI175
I2416
sI176
I2417
sI177
I2418
sI178
I2419
sI179
I2420
sI180
I2421
sI181
I2422
sI182
I2423
sI183
I2424
sI184
I2425
sI185
I2426
sI186
I2427
sI187
I2428
sI188
I2429
sI189
I2430
sI190
I2431
sI191
I2432
sI192
I2433
sI193
I2434
sI194
I2435
sI195
I2436
sI196
I2437
sI197
I2438
sI198
I2439
sI199
I2440
sI200
I2441
sI201
I2442
sI202
I2443
sI203
I2444
sI204
I2445
sI205
I2446
sI206
I2447
sI207
I2448
sI208
I2449
sI209
I2450
sI210
I2451
sI211
I2452
sI212
I2453
sI213
I2454
sI214
I2455
sI215
I2456
sI216
I2457
sI217
I2458
sI218
I2459
sI219
I2460
sI220
I2461
sI221
I2462
sI222
I2463
sI223
I2464
sI224
I2465
sI225
I2466
sI226
I2467
sI227
I2468
sI228
I2469
sI229
I2470
sI230
I2471
sI231
I2472
sI232
I2473
sI233
I2474
sI234
I2475
sI235
I2476
sI236
I2477
sI237
I2478
sI238
I2479
sI239
I2480
sI240
I2481
sI241
I2482
sI242
I2483
sI243
I2484
sI244
I2485
sI245
I2486
sI246
I2487
sI247
I2488
sI248
I2489
sI249
I2490
sI250
I2491
sI251
I2492
sI252
I2493
sI253
I2494
sI254
I2495
ssI191
(dp32
I161
I2496
sI162
I2497
sI163
I2498
sI164
I2499
sI165
I2500
sI166
I2501
sI167
I2502
sI168
I2503
sI169
I2504
sI170
I2505
sI171
I2506
sI172
I2507
sI173
I2508
sI174
I2509
sI175
I2510
sI176
I2511
sI177
I2512
sI178
I2513
sI179
I2514
sI180
I2515
sI181
I2516
sI182
I2517
sI183
I2518
sI184
I2519
sI185
I2520
sI186
I2521
sI187
I2522
sI188
I2523
sI189
I2524
sI190
I2525
sI191
I2526
sI192
I2527
sI193
I2528
sI194
I2529
sI195
I2530
sI196
I2531
sI197
I2532
sI198
I2533
sI199
I2534
sI200
I2535
sI201
I2536
sI202
I2537
sI203
I2538
sI204
I2539
sI205
I2540
sI206
I2541
sI207
I2542
sI208
I2543
sI209
I2544
sI210
I2545
sI211
I2546
sI212
I2547
sI213
I2548
sI214
I2549
sI215
I2550
sI216
I2551
sI217
I2552
sI218
I2553
sI219
I2554
sI220
I2555
sI221
I2556
sI222
I2557
sI223
I2558
sI224
I2559
sI225
I2560
sI226
I2561
sI227
I2562
sI228
I2563
sI229
I2564
sI230
I2565
sI231
I2566
sI232
I2567
sI233
I2568
sI234
I2569
sI235
I2570
sI236
I2571
sI237
I2572
sI238
I2573
sI239
I2574
sI240
I2575
sI241
I2576
sI242
I2577
sI243
I2578
sI244
I2579
sI245
I2580
sI246
I2581
sI247
I2582
sI248
I2583
sI249
I2584
sI250
I2585
sI251
I2586
sI252
I2587
sI253
I2588
sI254
I2589
ssI192
(dp33
I161
I2590
sI162
I2591
sI163
I2592
sI164
I2593
sI165
I2594
sI166
I2595
sI167
I2596
sI168
I2597
sI169
I2598
sI170
I2599
sI171
I2600
sI172
I2601
sI173
I2602
sI174
I2603
sI175
I2604
sI176
I2605
sI177
I2606
sI178
I2607
sI179
I2608
sI180
I2609
sI181
I2610
sI182
I2611
sI183
I2612
sI184
I2613
sI185
I2614
sI186
I2615
sI187
I2616
sI188
I2617
sI189
I2618
sI190
I2619
sI191
I2620
sI192
I2621
sI193
I2622
sI194
I2623
sI195
I2624
sI196
I2625
sI197
I2626
sI198
I2627
sI199
I2628
sI200
I2629
sI201
I2630
sI202
I2631
sI203
I2632
sI204
I2633
sI205
I2634
sI206
I2635
sI207
I2636
sI208
I2637
sI209
I2638
sI210
I2639
sI211
I2640
sI212
I2641
sI213
I2642
sI214
I2643
sI215
I2644
sI216
I2645
sI217
I2646
sI218
I2647
sI219
I2648
sI220
I2649
sI221
I2650
sI222
I2651
sI223
I2652
sI224
I2653
sI225
I2654
sI226
I2655
sI227
I2656
sI228
I2657
sI229
I2658
sI230
I2659
sI231
I2660
sI232
I2661
sI233
I2662
sI234
I2663
sI235
I2664
sI236
I2665
sI237
I2666
sI238
I2667
sI239
I2668
sI240
I2669
sI241
I2670
sI242
I2671
sI243
I2672
sI244
I2673
sI245
I2674
sI246
I2675
sI247
I2676
sI248
I2677
sI249
I2678
sI250
I2679
sI251
I2680
sI252
I2681
sI253
I2682
sI254
I2683
ssI193
(dp34
I161
I2684
sI162
I2685
sI163
I2686
sI164
I2687
sI165
I2688
sI166
I2689
sI167
I2690
sI168
I2691
sI169
I2692
sI170
I2693
sI171
I2694
sI172
I2695
sI173
I2696
sI174
I2697
sI175
I2698
sI176
I2699
sI177
I2700
sI178
I2701
sI179
I2702
sI180
I2703
sI181
I2704
sI182
I2705
sI183
I2706
sI184
I2707
sI185
I2708
sI186
I2709
sI187
I2710
sI188
I2711
sI189
I2712
sI190
I2713
sI191
I2714
sI192
I2715
sI193
I2716
sI194
I2717
sI195
I2718
sI196
I2719
sI197
I2720
sI198
I2721
sI199
I2722
sI200
I2723
sI201
I2724
sI202
I2725
sI203
I2726
sI204
I2727
sI205
I2728
sI206
I2729
sI207
I2730
sI208
I2731
sI209
I2732
sI210
I2733
sI211
I2734
sI212
I2735
sI213
I2736
sI214
I2737
sI215
I2738
sI216
I2739
sI217
I2740
sI218
I2741
sI219
I2742
sI220
I2743
sI221
I2744
sI222
I2745
sI223
I2746
sI224
I2747
sI225
I2748
sI226
I2749
sI227
I2750
sI228
I2751
sI229
I2752
sI230
I2753
sI231
I2754
sI232
I2755
sI233
I2756
sI234
I2757
sI235
I2758
sI236
I2759
sI237
I2760
sI238
I2761
sI239
I2762
sI240
I2763
sI241
I2764
sI242
I2765
sI243
I2766
sI244
I2767
sI245
I2768
sI246
I2769
sI247
I2770
sI248
I2771
sI249
I2772
sI250
I2773
sI251
I2774
sI252
I2775
sI253
I2776
sI254
I2777
ssI194
(dp35
I161
I2778
sI162
I2779
sI163
I2780
sI164
I2781
sI165
I2782
sI166
I2783
sI167
I2784
sI168
I2785
sI169
I2786
sI170
I2787
sI171
I2788
sI172
I2789
sI173
I2790
sI174
I2791
sI175
I2792
sI176
I2793
sI177
I2794
sI178
I2795
sI179
I2796
sI180
I2797
sI181
I2798
sI182
I2799
sI183
I2800
sI184
I2801
sI185
I2802
sI186
I2803
sI187
I2804
sI188
I2805
sI189
I2806
sI190
I2807
sI191
I2808
sI192
I2809
sI193
I2810
sI194
I2811
sI195
I2812
sI196
I2813
sI197
I2814
sI198
I2815
sI199
I2816
sI200
I2817
sI201
I2818
sI202
I2819
sI203
I2820
sI204
I2821
sI205
I2822
sI206
I2823
sI207
I2824
sI208
I2825
sI209
I2826
sI210
I2827
sI211
I2828
sI212
I2829
sI213
I2830
sI214
I2831
sI215
I2832
sI216
I2833
sI217
I2834
sI218
I2835
sI219
I2836
sI220
I2837
sI221
I2838
sI222
I2839
sI223
I2840
sI224
I2841
sI225
I2842
sI226
I2843
sI227
I2844
sI228
I2845
sI229
I2846
sI230
I2847
sI231
I2848
sI232
I2849
sI233
I2850
sI234
I2851
sI235
I2852
sI236
I2853
sI237
I2854
sI238
I2855
sI239
I2856
sI240
I2857
sI241
I2858
sI242
I2859
sI243
I2860
sI244
I2861
sI245
I2862
sI246
I2863
sI247
I2864
sI248
I2865
sI249
I2866
sI250
I2867
sI251
I2868
sI252
I2869
sI253
I2870
sI254
I2871
ssI195
(dp36
I161
I2872
sI162
I2873
sI163
I2874
sI164
I2875
sI165
I2876
sI166
I2877
sI167
I2878
sI168
I2879
sI169
I2880
sI170
I2881
sI171
I2882
sI172
I2883
sI173
I2884
sI174
I2885
sI175
I2886
sI176
I2887
sI177
I2888
sI178
I2889
sI179
I2890
sI180
I2891
sI181
I2892
sI182
I2893
sI183
I2894
sI184
I2895
sI185
I2896
sI186
I2897
sI187
I2898
sI188
I2899
sI189
I2900
sI190
I2901
sI191
I2902
sI192
I2903
sI193
I2904
sI194
I2905
sI195
I2906
sI196
I2907
sI197
I2908
sI198
I2909
sI199
I2910
sI200
I2911
sI201
I2912
sI202
I2913
sI203
I2914
sI204
I2915
sI205
I2916
sI206
I2917
sI207
I2918
sI208
I2919
sI209
I2920
sI210
I2921
sI211
I2922
sI212
I2923
sI213
I2924
sI214
I2925
sI215
I2926
sI216
I2927
sI217
I2928
sI218
I2929
sI219
I2930
sI220
I2931
sI221
I2932
sI222
I2933
sI223
I2934
sI224
I2935
sI225
I2936
sI226
I2937
sI227
I2938
sI228
I2939
sI229
I2940
sI230
I2941
sI231
I2942
sI232
I2943
sI233
I2944
sI234
I2945
sI235
I2946
sI236
I2947
sI237
I2948
sI238
I2949
sI239
I2950
sI240
I2951
sI241
I2952
sI242
I2953
sI243
I2954
sI244
I2955
sI245
I2956
sI246
I2957
sI247
I2958
sI248
I2959
sI249
I2960
sI250
I2961
sI251
I2962
sI252
I2963
sI253
I2964
sI254
I2965
ssI196
(dp37
I161
I2966
sI162
I2967
sI163
I2968
sI164
I2969
sI165
I2970
sI166
I2971
sI167
I2972
sI168
I2973
sI169
I2974
sI170
I2975
sI171
I2976
sI172
I2977
sI173
I2978
sI174
I2979
sI175
I2980
sI176
I2981
sI177
I2982
sI178
I2983
sI179
I2984
sI180
I2985
sI181
I2986
sI182
I2987
sI183
I2988
sI184
I2989
sI185
I2990
sI186
I2991
sI187
I2992
sI188
I2993
sI189
I2994
sI190
I2995
sI191
I2996
sI192
I2997
sI193
I2998
sI194
I2999
sI195
I3000
sI196
I3001
sI197
I3002
sI198
I3003
sI199
I3004
sI200
I3005
sI201
I3006
sI202
I3007
sI203
I3008
sI204
I3009
sI205
I3010
sI206
I3011
sI207
I3012
sI208
I3013
sI209
I3014
sI210
I3015
sI211
I3016
sI212
I3017
sI213
I3018
sI214
I3019
sI215
I3020
sI216
I3021
sI217
I3022
sI218
I3023
sI219
I3024
sI220
I3025
sI221
I3026
sI222
I3027
sI223
I3028
sI224
I3029
sI225
I3030
sI226
I3031
sI227
I3032
sI228
I3033
sI229
I3034
sI230
I3035
sI231
I3036
sI232
I3037
sI233
I3038
sI234
I3039
sI235
I3040
sI236
I3041
sI237
I3042
sI238
I3043
sI239
I3044
sI240
I3045
sI241
I3046
sI242
I3047
sI243
I3048
sI244
I3049
sI245
I3050
sI246
I3051
sI247
I3052
sI248
I3053
sI249
I3054
sI250
I3055
sI251
I3056
sI252
I3057
sI253
I3058
sI254
I3059
ssI197
(dp38
I161
I3060
sI162
I3061
sI163
I3062
sI164
I3063
sI165
I3064
sI166
I3065
sI167
I3066
sI168
I3067
sI169
I3068
sI170
I3069
sI171
I3070
sI172
I3071
sI173
I3072
sI174
I3073
sI175
I3074
sI176
I3075
sI177
I3076
sI178
I3077
sI179
I3078
sI180
I3079
sI181
I3080
sI182
I3081
sI183
I3082
sI184
I3083
sI185
I3084
sI186
I3085
sI187
I3086
sI188
I3087
sI189
I3088
sI190
I3089
sI191
I3090
sI192
I3091
sI193
I3092
sI194
I3093
sI195
I3094
sI196
I3095
sI197
I3096
sI198
I3097
sI199
I3098
sI200
I3099
sI201
I3100
sI202
I3101
sI203
I3102
sI204
I3103
sI205
I3104
sI206
I3105
sI207
I3106
sI208
I3107
sI209
I3108
sI210
I3109
sI211
I3110
sI212
I3111
sI213
I3112
sI214
I3113
sI215
I3114
sI216
I3115
sI217
I3116
sI218
I3117
sI219
I3118
sI220
I3119
sI221
I3120
sI222
I3121
sI223
I3122
sI224
I3123
sI225
I3124
sI226
I3125
sI227
I3126
sI228
I3127
sI229
I3128
sI230
I3129
sI231
I3130
sI232
I3131
sI233
I3132
sI234
I3133
sI235
I3134
sI236
I3135
sI237
I3136
sI238
I3137
sI239
I3138
sI240
I3139
sI241
I3140
sI242
I3141
sI243
I3142
sI244
I3143
sI245
I3144
sI246
I3145
sI247
I3146
sI248
I3147
sI249
I3148
sI250
I3149
sI251
I3150
sI252
I3151
sI253
I3152
sI254
I3153
ssI198
(dp39
I161
I3154
sI162
I3155
sI163
I3156
sI164
I3157
sI165
I3158
sI166
I3159
sI167
I3160
sI168
I3161
sI169
I3162
sI170
I3163
sI171
I3164
sI172
I3165
sI173
I3166
sI174
I3167
sI175
I3168
sI176
I3169
sI177
I3170
sI178
I3171
sI179
I3172
sI180
I3173
sI181
I3174
sI182
I3175
sI183
I3176
sI184
I3177
sI185
I3178
sI186
I3179
sI187
I3180
sI188
I3181
sI189
I3182
sI190
I3183
sI191
I3184
sI192
I3185
sI193
I3186
sI194
I3187
sI195
I3188
sI196
I3189
sI197
I3190
sI198
I3191
sI199
I3192
sI200
I3193
sI201
I3194
sI202
I3195
sI203
I3196
sI204
I3197
sI205
I3198
sI206
I3199
sI207
I3200
sI208
I3201
sI209
I3202
sI210
I3203
sI211
I3204
sI212
I3205
sI213
I3206
sI214
I3207
sI215
I3208
sI216
I3209
sI217
I3210
sI218
I3211
sI219
I3212
sI220
I3213
sI221
I3214
sI222
I3215
sI223
I3216
sI224
I3217
sI225
I3218
sI226
I3219
sI227
I3220
sI228
I3221
sI229
I3222
sI230
I3223
sI231
I3224
sI232
I3225
sI233
I3226
sI234
I3227
sI235
I3228
sI236
I3229
sI237
I3230
sI238
I3231
sI239
I3232
sI240
I3233
sI241
I3234
sI242
I3235
sI243
I3236
sI244
I3237
sI245
I3238
sI246
I3239
sI247
I3240
sI248
I3241
sI249
I3242
sI250
I3243
sI251
I3244
sI252
I3245
sI253
I3246
sI254
I3247
ssI199
(dp40
I161
I3248
sI162
I3249
sI163
I3250
sI164
I3251
sI165
I3252
sI166
I3253
sI167
I3254
sI168
I3255
sI169
I3256
sI170
I3257
sI171
I3258
sI172
I3259
sI173
I3260
sI174
I3261
sI175
I3262
sI176
I3263
sI177
I3264
sI178
I3265
sI179
I3266
sI180
I3267
sI181
I3268
sI182
I3269
sI183
I3270
sI184
I3271
sI185
I3272
sI186
I3273
sI187
I3274
sI188
I3275
sI189
I3276
sI190
I3277
sI191
I3278
sI192
I3279
sI193
I3280
sI194
I3281
sI195
I3282
sI196
I3283
sI197
I3284
sI198
I3285
sI199
I3286
sI200
I3287
sI201
I3288
sI202
I3289
sI203
I3290
sI204
I3291
sI205
I3292
sI206
I3293
sI207
I3294
sI208
I3295
sI209
I3296
sI210
I3297
sI211
I3298
sI212
I3299
sI213
I3300
sI214
I3301
sI215
I3302
sI216
I3303
sI217
I3304
sI218
I3305
sI219
I3306
sI220
I3307
sI221
I3308
sI222
I3309
sI223
I3310
sI224
I3311
sI225
I3312
sI226
I3313
sI227
I3314
sI228
I3315
sI229
I3316
sI230
I3317
sI231
I3318
sI232
I3319
sI233
I3320
sI234
I3321
sI235
I3322
sI236
I3323
sI237
I3324
sI238
I3325
sI239
I3326
sI240
I3327
sI241
I3328
sI242
I3329
sI243
I3330
sI244
I3331
sI245
I3332
sI246
I3333
sI247
I3334
sI248
I3335
sI249
I3336
sI250
I3337
sI251
I3338
sI252
I3339
sI253
I3340
sI254
I3341
ssI200
(dp41
I161
I3342
sI162
I3343
sI163
I3344
sI164
I3345
sI165
I3346
sI166
I3347
sI167
I3348
sI168
I3349
sI169
I3350
sI170
I3351
sI171
I3352
sI172
I3353
sI173
I3354
sI174
I3355
sI175
I3356
sI176
I3357
sI177
I3358
sI178
I3359
sI179
I3360
sI180
I3361
sI181
I3362
sI182
I3363
sI183
I3364
sI184
I3365
sI185
I3366
sI186
I3367
sI187
I3368
sI188
I3369
sI189
I3370
sI190
I3371
sI191
I3372
sI192
I3373
sI193
I3374
sI194
I3375
sI195
I3376
sI196
I3377
sI197
I3378
sI198
I3379
sI199
I3380
sI200
I3381
sI201
I3382
sI202
I3383
sI203
I3384
sI204
I3385
sI205
I3386
sI206
I3387
sI207
I3388
sI208
I3389
sI209
I3390
sI210
I3391
sI211
I3392
sI212
I3393
sI213
I3394
sI214
I3395
sI215
I3396
sI216
I3397
sI217
I3398
sI218
I3399
sI219
I3400
sI220
I3401
sI221
I3402
sI222
I3403
sI223
I3404
sI224
I3405
sI225
I3406
sI226
I3407
sI227
I3408
sI228
I3409
sI229
I3410
sI230
I3411
sI231
I3412
sI232
I3413
sI233
I3414
sI234
I3415
sI235
I3416
sI236
I3417
sI237
I3418
sI238
I3419
sI239
I3420
sI240
I3421
sI241
I3422
sI242
I3423
sI243
I3424
sI244
I3425
sI245
I3426
sI246
I3427
sI247
I3428
sI248
I3429
sI249
I3430
sI250
I3431
sI251
I3432
sI252
I3433
sI253
I3434
sI254
I3435
ssI202
(dp42
I161
I3436
sI162
I3437
sI163
I3438
sI164
I3439
sI165
I3440
sI166
I3441
sI167
I3442
sI168
I3443
sI169
I3444
sI170
I3445
sI171
I3446
sI172
I3447
sI173
I3448
sI174
I3449
sI175
I3450
sI176
I3451
sI177
I3452
sI178
I3453
sI179
I3454
sI180
I3455
sI181
I3456
sI182
I3457
sI183
I3458
sI184
I3459
sI185
I3460
sI186
I3461
sI187
I3462
sI188
I3463
sI189
I3464
sI190
I3465
sI191
I3466
sI192
I3467
sI193
I3468
sI194
I3469
sI195
I3470
sI196
I3471
sI197
I3472
sI198
I3473
sI199
I3474
sI200
I3475
sI201
I3476
sI202
I3477
sI203
I3478
sI204
I3479
sI205
I3480
sI206
I3481
sI207
I3482
sI208
I3483
sI209
I3484
sI210
I3485
sI211
I3486
sI212
I3487
sI213
I3488
sI214
I3489
sI215
I3490
sI216
I3491
sI217
I3492
sI218
I3493
sI219
I3494
sI220
I3495
sI221
I3496
sI222
I3497
sI223
I3498
sI224
I3499
sI225
I3500
sI226
I3501
sI227
I3502
sI228
I3503
sI229
I3504
sI230
I3505
sI231
I3506
sI232
I3507
sI233
I3508
sI234
I3509
sI235
I3510
sI236
I3511
sI237
I3512
sI238
I3513
sI239
I3514
sI240
I3515
sI241
I3516
sI242
I3517
sI243
I3518
sI244
I3519
sI245
I3520
sI246
I3521
sI247
I3522
sI248
I3523
sI249
I3524
sI250
I3525
sI251
I3526
sI252
I3527
sI253
I3528
sI254
I3529
ssI203
(dp43
I161
I3530
sI162
I3531
sI163
I3532
sI164
I3533
sI165
I3534
sI166
I3535
sI167
I3536
sI168
I3537
sI169
I3538
sI170
I3539
sI171
I3540
sI172
I3541
sI173
I3542
sI174
I3543
sI175
I3544
sI176
I3545
sI177
I3546
sI178
I3547
sI179
I3548
sI180
I3549
sI181
I3550
sI182
I3551
sI183
I3552
sI184
I3553
sI185
I3554
sI186
I3555
sI187
I3556
sI188
I3557
sI189
I3558
sI190
I3559
sI191
I3560
sI192
I3561
sI193
I3562
sI194
I3563
sI195
I3564
sI196
I3565
sI197
I3566
sI198
I3567
sI199
I3568
sI200
I3569
sI201
I3570
sI202
I3571
sI203
I3572
sI204
I3573
sI205
I3574
sI206
I3575
sI207
I3576
sI208
I4116
sI209
I3577
sI210
I3578
sI211
I3579
sI212
I3580
sI213
I3581
sI214
I3678
sI215
I3582
sI216
I3583
sI217
I3584
sI218
I3585
sI219
I3586
sI220
I3587
sI221
I3588
sI222
I3589
sI223
I3590
sI224
I3591
sI225
I3592
sI226
I3593
sI227
I3594
sI228
I3595
sI229
I3596
sI230
I3597
sI231
I7053
sI232
I3598
sI233
I3599
sI234
I3600
sI235
I3601
sI236
I3602
sI237
I3603
sI238
I3604
sI239
I3605
sI240
I3606
sI241
I3607
sI242
I3608
sI243
I3609
sI244
I3610
sI245
I3611
sI246
I3612
sI247
I3613
sI248
I3614
sI249
I3615
sI250
I3616
sI251
I3617
sI252
I3618
sI253
I3619
sI254
I3620
ssI204
(dp44
I161
I3621
sI162
I3622
sI163
I3623
sI164
I3624
sI165
I3625
sI166
I3626
sI167
I3627
sI168
I3628
sI169
I3629
sI170
I3630
sI171
I3631
sI172
I3632
sI173
I3633
sI174
I3634
sI175
I3635
sI176
I3636
sI177
I3637
sI178
I3638
sI179
I3639
sI180
I3640
sI181
I3641
sI182
I3642
sI183
I3643
sI184
I3644
sI185
I3645
sI186
I3646
sI187
I3647
sI188
I3648
sI189
I3649
sI190
I3650
sI191
I3651
sI192
I3652
sI193
I3653
sI194
I3654
sI195
I3655
sI196
I3656
sI197
I3657
sI198
I3658
sI199
I3659
sI200
I3660
sI201
I3661
sI202
I3662
sI203
I3663
sI204
I3664
sI205
I3665
sI206
I3666
sI207
I3667
sI208
I3668
sI209
I3669
sI210
I3670
sI211
I3671
sI212
I3672
sI213
I3673
sI214
I3674
sI215
I3675
sI216
I3676
sI217
I3677
sI218
I3678
sI219
I3679
sI220
I3680
sI221
I3681
sI222
I3682
sI223
I3683
sI224
I3684
sI225
I3685
sI226
I3686
sI227
I3687
sI228
I3688
sI229
I3689
sI230
I3690
sI231
I3691
sI232
I3692
sI233
I3693
sI234
I3694
sI235
I3695
sI236
I3696
sI237
I3697
sI238
I3698
sI239
I3699
sI240
I3700
sI241
I3701
sI242
I3702
sI243
I3703
sI244
I3704
sI245
I3705
sI246
I3706
sI247
I3707
sI248
I3708
sI249
I3709
sI250
I3710
sI251
I3711
sI252
I3712
sI253
I3713
sI254
I3714
ssI205
(dp45
I161
I3715
sI162
I3716
sI163
I3717
sI164
I3718
sI165
I3719
sI166
I3720
sI167
I3721
sI168
I3722
sI169
I3723
sI170
I3724
sI171
I3725
sI172
I3726
sI173
I3727
sI174
I3728
sI175
I3729
sI176
I3730
sI177
I3731
sI178
I3732
sI179
I3733
sI180
I3734
sI181
I3735
sI182
I3736
sI183
I3737
sI184
I3738
sI185
I3739
sI186
I3740
sI187
I3741
sI188
I3742
sI189
I3743
sI190
I3744
sI191
I3745
sI192
I3746
sI193
I3747
sI194
I3748
sI195
I3749
sI196
I3750
sI197
I3751
sI198
I3752
sI199
I3753
sI200
I3754
sI201
I3755
sI202
I3756
sI203
I3757
sI204
I3758
sI205
I3759
sI206
I3760
sI207
I3460
sI208
I3761
sI209
I3762
sI210
I3763
sI211
I3764
sI212
I3765
sI213
I3766
sI214
I3767
sI215
I3768
sI216
I3769
sI217
I3770
sI218
I3771
sI219
I3772
sI220
I3773
sI221
I3774
sI222
I3775
sI223
I3776
sI224
I3777
sI225
I3778
sI226
I3779
sI227
I3780
sI228
I3781
sI229
I3782
sI230
I3783
sI231
I3784
sI232
I7900
sI233
I3785
sI234
I3786
sI235
I3787
sI236
I3788
sI237
I3789
sI238
I3790
sI239
I3791
sI240
I3792
sI241
I3793
sI242
I3794
sI243
I3795
sI244
I3796
sI245
I3797
sI246
I3798
sI247
I3799
sI248
I3800
sI249
I3801
sI250
I3802
sI251
I3803
sI252
I3804
sI253
I3805
sI254
I3806
ssI206
(dp46
I161
I3807
sI162
I3808
sI163
I3809
sI164
I3810
sI165
I3811
sI166
I3812
sI167
I3813
sI168
I3814
sI169
I3815
sI170
I3816
sI171
I3817
sI172
I3818
sI173
I3802
sI174
I3819
sI175
I3820
sI176
I3821
sI177
I3822
sI178
I3823
sI179
I3824
sI180
I3825
sI181
I3826
sI182
I3827
sI183
I3828
sI184
I3829
sI185
I3830
sI186
I3831
sI187
I3832
sI188
I3833
sI189
I3834
sI190
I3835
sI191
I3836
sI192
I3837
sI193
I3838
sI194
I3839
sI195
I3840
sI196
I3841
sI197
I3842
sI198
I3843
sI199
I3844
sI200
I3845
sI201
I3846
sI202
I3847
sI203
I3848
sI204
I3849
sI205
I3850
sI206
I3851
sI207
I3852
sI208
I3853
sI209
I3854
sI210
I3855
sI211
I3856
sI212
I3857
sI213
I3858
sI214
I3859
sI215
I3860
sI216
I3861
sI217
I3862
sI218
I3863
sI219
I3864
sI220
I3865
sI221
I3866
sI222
I3867
sI223
I3868
sI224
I3869
sI225
I3870
sI226
I3871
sI227
I3872
sI228
I3873
sI229
I3874
sI230
I3875
sI231
I3876
sI232
I3877
sI233
I3878
sI234
I3879
sI235
I3880
sI236
I3881
sI237
I3882
sI238
I3883
sI239
I3884
sI240
I3885
sI241
I3886
sI242
I3887
sI243
I3888
sI244
I3889
sI245
I3890
sI246
I3891
sI247
I3892
sI248
I3893
sI249
I3894
sI250
I3895
sI251
I3896
sI252
I3897
sI253
I3898
sI254
I3899
ssI207
(dp47
I161
I3900
sI162
I3901
sI163
I3902
sI164
I3903
sI165
I3904
sI166
I3905
sI167
I3906
sI168
I3907
sI169
I3908
sI170
I3909
sI171
I3910
sI172
I3911
sI173
I3912
sI174
I3913
sI175
I3914
sI176
I3915
sI177
I3916
sI178
I3917
sI179
I3918
sI180
I3919
sI181
I3920
sI182
I3921
sI183
I3922
sI184
I3923
sI185
I3924
sI186
I3925
sI187
I3926
sI188
I3927
sI189
I3928
sI190
I3929
sI191
I3930
sI192
I3931
sI193
I3932
sI194
I3933
sI195
I3934
sI196
I3935
sI197
I3936
sI198
I3937
sI199
I3938
sI200
I3939
sI201
I3940
sI202
I3941
sI203
I3942
sI204
I3943
sI205
I3944
sI206
I3945
sI207
I3946
sI208
I3947
sI209
I3948
sI210
I3949
sI211
I3950
sI212
I3951
sI213
I3952
sI214
I3953
sI215
I3954
sI216
I3955
sI217
I3956
sI218
I3957
sI219
I3958
sI220
I3959
sI221
I3960
sI222
I3961
sI223
I3962
sI224
I3963
sI225
I3964
sI226
I3965
sI227
I3966
sI228
I3967
sI229
I3968
sI230
I3969
sI231
I3970
sI232
I3971
sI233
I3972
sI234
I3973
sI235
I3974
sI236
I3975
sI237
I3976
sI238
I3977
sI239
I3978
sI240
I3979
sI241
I3980
sI242
I3981
sI243
I3982
sI244
I3983
sI245
I3984
sI246
I3985
sI247
I3986
sI248
I3987
sI249
I3988
sI250
I3989
sI251
I3902
sI252
I3990
sI253
I3991
sI254
I3992
ssI208
(dp48
I161
I3993
sI162
I3946
sI163
I3994
sI164
I3995
sI165
I3996
sI166
I3997
sI167
I3998
sI168
I3999
sI169
I4000
sI170
I4001
sI171
I4002
sI172
I4003
sI173
I4004
sI174
I4005
sI175
I4006
sI176
I4007
sI177
I4008
sI178
I4009
sI179
I4010
sI180
I4011
sI181
I4012
sI182
I4013
sI183
I4014
sI184
I3946
sI185
I4015
sI186
I4016
sI187
I4017
sI188
I4018
sI189
I4019
sI190
I4020
sI191
I4021
sI192
I4022
sI193
I4023
sI194
I4024
sI195
I4025
sI196
I4026
sI197
I4027
sI198
I4028
sI199
I4029
sI200
I4030
sI201
I4031
sI202
I4032
sI203
I4033
sI204
I4034
sI205
I4035
sI206
I4036
sI207
I4037
sI208
I3708
sI209
I4038
sI210
I4039
sI211
I4040
sI212
I4041
sI213
I4042
sI214
I4043
sI215
I4044
sI216
I4045
sI217
I4046
sI218
I4047
sI219
I4048
sI220
I4049
sI221
I4131
sI222
I4050
sI223
I4051
sI224
I4052
sI225
I4053
sI226
I4054
sI227
I4055
sI228
I4056
sI229
I4057
sI230
I4058
sI231
I4059
sI232
I4060
sI233
I4061
sI234
I4062
sI235
I4063
sI236
I4064
sI237
I4065
sI238
I4066
sI239
I4067
sI240
I4068
sI241
I4069
sI242
I4070
sI243
I4071
sI244
I4072
sI245
I4073
sI246
I4074
sI247
I4075
sI248
I4076
sI249
I4077
sI250
I4078
sI251
I4079
sI252
I4080
sI253
I4081
sI254
I4082
ssI209
(dp49
I161
I4083
sI162
I4084
sI163
I4085
sI164
I4086
sI165
I4087
sI166
I4088
sI167
I4089
sI168
I4090
sI169
I4091
sI170
I4092
sI171
I4093
sI172
I4094
sI173
I4095
sI174
I4096
sI175
I4097
sI176
I4098
sI177
I4099
sI178
I4100
sI179
I4101
sI180
I4102
sI181
I4103
sI182
I4104
sI183
I4105
sI184
I4106
sI185
I4107
sI186
I4108
sI187
I4109
sI188
I4110
sI189
I4111
sI190
I4112
sI191
I4113
sI192
I4114
sI193
I4115
sI194
I4116
sI195
I4117
sI196
I4118
sI197
I4119
sI198
I4120
sI199
I4121
sI200
I4122
sI201
I4123
sI202
I4124
sI203
I4125
sI204
I4126
sI205
I4127
sI206
I4128
sI207
I4129
sI208
I4130
sI209
I4131
sI210
I4132
sI211
I4133
sI212
I4374
sI213
I4156
sI214
I4134
sI215
I4135
sI216
I4375
sI217
I4136
sI218
I4137
sI219
I4376
sI220
I4377
sI221
I4378
sI222
I4379
sI223
I4380
sI224
I4381
sI225
I4138
sI226
I5800
sI227
I4382
sI228
I4383
sI229
I4384
sI230
I4386
sI231
I4139
sI232
I4387
sI233
I4388
sI234
I4389
sI235
I4390
sI236
I4140
sI237
I4391
sI238
I4141
sI239
I4394
sI240
I4395
sI241
I4142
sI242
I4396
sI243
I4143
sI244
I4144
sI245
I4145
sI246
I4399
sI247
I4146
sI248
I4147
sI249
I4148
sI250
I4403
sI251
I4149
sI252
I4406
sI253
I4407
sI254
I4409
ssI210
(dp50
I161
I4150
sI162
I4410
sI163
I4411
sI164
I4151
sI165
I4152
sI166
I4153
sI167
I4412
sI168
I4413
sI169
I4414
sI170
I4415
sI171
I4419
sI172
I4154
sI173
I4420
sI174
I4155
sI175
I4156
sI176
I4157
sI177
I4158
sI178
I4424
sI179
I4159
sI180
I4160
sI181
I4161
sI182
I4162
sI183
I4163
sI184
I4164
sI185
I4165
sI186
I4166
sI187
I4167
sI188
I4168
sI189
I4169
sI190
I4511
sI191
I4170
sI192
I4171
sI193
I4172
sI194
I4513
sI195
I4514
sI196
I4517
sI197
I4173
sI198
I4518
sI199
I4519
sI200
I4520
sI201
I4521
sI202
I4522
sI203
I4524
sI204
I4174
sI205
I4525
sI206
I4526
sI207
I4528
sI208
I4529
sI209
I4530
sI210
I4531
sI211
I4532
sI212
I4533
sI213
I4535
sI214
I4536
sI215
I4537
sI216
I4175
sI217
I4541
sI218
I4542
sI219
I4176
sI220
I4177
sI221
I4178
sI222
I4545
sI223
I4546
sI224
I4179
sI225
I4547
sI226
I4550
sI227
I4180
sI228
I4564
sI229
I4566
sI230
I4567
sI231
I4568
sI232
I4569
sI233
I4571
sI234
I4572
sI235
I4576
sI236
I4181
sI237
I4182
sI238
I4183
sI239
I4184
sI240
I4604
sI241
I4605
sI242
I4606
sI243
I4607
sI244
I4609
sI245
I4610
sI246
I4185
sI247
I4611
sI248
I4612
sI249
I4186
sI250
I4187
sI251
I4188
sI252
I4189
sI253
I4190
sI254
I4191
ssI211
(dp51
I161
I4192
sI162
I4193
sI163
I4194
sI164
I4195
sI165
I4196
sI166
I4197
sI167
I4198
sI168
I4199
sI169
I4200
sI170
I4201
sI171
I4202
sI172
I4203
sI173
I4204
sI174
I4205
sI175
I4206
sI176
I4207
sI177
I4208
sI178
I4209
sI179
I4210
sI180
I4211
sI181
I4212
sI182
I4213
sI183
I4214
sI184
I4215
sI185
I4216
sI186
I4217
sI187
I4218
sI188
I4219
sI189
I4220
sI190
I4221
sI191
I4222
sI192
I4223
sI193
I4224
sI194
I4225
sI195
I4226
sI196
I4227
sI197
I4228
sI198
I4229
sI199
I4230
sI200
I4231
sI201
I4232
sI202
I4233
sI203
I4234
sI204
I4235
sI205
I4236
sI206
I4237
sI207
I4238
sI208
I4239
sI209
I4240
sI210
I4241
sI211
I4242
sI212
I4243
sI213
I4244
sI214
I4245
sI215
I4246
sI216
I4247
sI217
I4248
sI218
I4249
sI219
I4250
sI220
I4251
sI221
I4252
sI222
I4253
sI223
I4254
sI224
I4255
sI225
I4256
sI226
I4257
sI227
I4258
sI228
I4259
sI229
I4260
sI230
I4261
sI231
I4262
sI232
I4263
sI233
I4264
sI234
I4265
sI235
I4266
sI236
I4267
sI237
I4268
sI238
I4269
sI239
I4270
sI240
I4271
sI241
I4272
sI242
I4273
sI243
I4274
sI244
I4275
sI245
I4276
sI246
I4277
sI247
I4278
sI248
I4279
sI249
I4280
sI250
I4281
sI251
I4282
sI252
I4283
sI253
I4284
sI254
I4285
ssI212
(dp52
I161
I4286
sI162
I4287
sI163
I4288
sI164
I4289
sI165
I4290
sI166
I4291
sI167
I4292
sI168
I4293
sI169
I4294
sI170
I4295
sI171
I4296
sI172
I4297
sI173
I4298
sI174
I4299
sI175
I4300
sI176
I4301
sI177
I4302
sI178
I4303
sI179
I4304
sI180
I4305
sI181
I4306
sI182
I4307
sI183
I4308
sI184
I4309
sI185
I4310
sI186
I4311
sI187
I4312
sI188
I4313
sI189
I4314
sI190
I4315
sI191
I4316
sI192
I4317
sI193
I4318
sI194
I4319
sI195
I4320
sI196
I4321
sI197
I4322
sI198
I4323
sI199
I4324
sI200
I4325
sI201
I4326
sI202
I4327
sI203
I4328
sI204
I4329
sI205
I4330
sI206
I4331
sI207
I4332
sI208
I4333
sI209
I4334
sI210
I4335
sI211
I4336
sI212
I4337
sI213
I4338
sI214
I4339
sI215
I4340
sI216
I4341
sI217
I4342
sI218
I4343
sI219
I4344
sI220
I4345
sI221
I4346
sI222
I4347
sI223
I4348
sI224
I4349
sI225
I4350
sI226
I4351
sI227
I4352
sI228
I4353
sI229
I4354
sI230
I4318
sI231
I4355
sI232
I4356
sI233
I4357
sI234
I4358
sI235
I4359
sI236
I4360
sI237
I4361
sI238
I4362
sI239
I4363
sI240
I4364
sI241
I4365
sI242
I4366
sI243
I4367
sI244
I4368
sI245
I4369
sI246
I4370
sI247
I4371
sI248
I4372
sI249
I4373
sI250
I4374
sI251
I4375
sI252
I4136
sI253
I4376
sI254
I4377
ssI213
(dp53
I161
I4378
sI162
I4379
sI163
I4380
sI164
I4381
sI165
I5800
sI166
I4382
sI167
I4383
sI168
I4384
sI169
I4385
sI170
I4386
sI171
I4139
sI172
I4387
sI173
I4388
sI174
I4192
sI175
I4389
sI176
I4390
sI177
I4391
sI178
I4392
sI179
I4393
sI180
I4394
sI181
I4395
sI182
I4396
sI183
I4397
sI184
I4398
sI185
I4399
sI186
I4400
sI187
I4401
sI188
I4402
sI189
I4403
sI190
I4404
sI191
I4405
sI192
I4406
sI193
I4407
sI194
I4408
sI195
I4409
sI196
I4410
sI197
I4411
sI198
I4412
sI199
I4413
sI200
I4414
sI201
I4415
sI202
I4416
sI203
I4417
sI204
I4418
sI205
I4419
sI206
I4420
sI207
I4421
sI208
I4422
sI209
I4423
sI210
I4424
sI211
I4425
sI212
I4426
sI213
I4427
sI214
I4428
sI215
I4429
sI216
I4430
sI217
I4431
sI218
I4432
sI219
I4433
sI220
I4434
sI221
I4435
sI222
I4436
sI223
I4437
sI224
I4438
sI225
I4439
sI226
I4440
sI227
I4441
sI228
I4442
sI229
I4443
sI230
I4444
sI231
I4445
sI232
I4446
sI233
I4447
sI234
I4448
sI235
I4449
sI236
I4450
sI237
I4451
sI238
I4452
sI239
I4453
sI240
I4454
sI241
I4455
sI242
I4456
sI243
I4457
sI244
I4458
sI245
I4459
sI246
I4460
sI247
I4461
sI248
I4462
sI249
I4463
sI250
I4464
sI251
I4465
sI252
I4466
sI253
I4467
sI254
I4468
ssI214
(dp54
I161
I4469
sI162
I4470
sI163
I4471
sI164
I4472
sI165
I4473
sI166
I4474
sI167
I4475
sI168
I4476
sI169
I4477
sI170
I4478
sI171
I4479
sI172
I4480
sI173
I4481
sI174
I4482
sI175
I4483
sI176
I4484
sI177
I4485
sI178
I4486
sI179
I4487
sI180
I4488
sI181
I4489
sI182
I4490
sI183
I4491
sI184
I4167
sI185
I4492
sI186
I4493
sI187
I4494
sI188
I4495
sI189
I4496
sI190
I4497
sI191
I4498
sI192
I4499
sI193
I4500
sI194
I4501
sI195
I4502
sI196
I4503
sI197
I4504
sI198
I4505
sI199
I4506
sI200
I4507
sI201
I4508
sI202
I4509
sI203
I4510
sI204
I4511
sI205
I4172
sI206
I4512
sI207
I4513
sI208
I4514
sI209
I4515
sI210
I4516
sI211
I4517
sI212
I4518
sI213
I4519
sI214
I4520
sI215
I4521
sI216
I4522
sI217
I4523
sI218
I4524
sI219
I4525
sI220
I4526
sI221
I4527
sI222
I4528
sI223
I4529
sI224
I4530
sI225
I4531
sI226
I4532
sI227
I4533
sI228
I4534
sI229
I4535
sI230
I4536
sI231
I4537
sI232
I4538
sI233
I4539
sI234
I4540
sI235
I4541
sI236
I4542
sI237
I4543
sI238
I4544
sI239
I4545
sI240
I4546
sI241
I4547
sI242
I4548
sI243
I4549
sI244
I4550
sI245
I4551
sI246
I4552
sI247
I4553
sI248
I4554
sI249
I4555
sI250
I4556
sI251
I4557
sI252
I4558
sI253
I4559
sI254
I4560
ssI215
(dp55
I161
I4561
sI162
I4562
sI163
I4563
sI164
I4564
sI165
I4565
sI166
I4566
sI167
I4567
sI168
I4568
sI169
I4569
sI170
I4570
sI171
I4571
sI172
I4572
sI173
I4573
sI174
I4574
sI175
I4575
sI176
I4576
sI177
I4577
sI178
I4578
sI179
I4579
sI180
I4580
sI181
I4581
sI182
I4582
sI183
I4583
sI184
I4584
sI185
I4585
sI186
I4586
sI187
I4587
sI188
I4588
sI189
I4589
sI190
I4590
sI191
I4591
sI192
I4592
sI193
I4593
sI194
I4594
sI195
I4595
sI196
I4596
sI197
I4597
sI198
I4598
sI199
I4599
sI200
I4600
sI201
I4601
sI202
I4602
sI203
I5552
sI204
I4603
sI205
I4604
sI206
I4605
sI207
I4606
sI208
I4607
sI209
I4608
sI210
I4609
sI211
I4610
sI212
I4611
sI213
I4612
sI214
I4613
sI215
I4614
sI216
I4615
sI217
I4616
sI218
I4617
sI219
I4618
sI220
I4619
sI221
I4620
sI222
I4621
sI223
I4622
sI224
I4623
sI225
I4624
sI226
I4625
sI227
I4626
sI228
I6424
sI229
I4627
sI230
I4628
sI231
I4629
sI232
I4630
sI233
I4631
sI234
I4632
sI235
I4633
sI236
I4634
sI237
I4635
sI238
I4636
sI239
I4637
sI240
I4638
sI241
I4639
sI242
I4640
sI243
I4641
sI244
I4642
sI245
I4643
sI246
I4644
sI247
I4645
sI248
I4646
sI249
I4647
sI250
I4648
sI251
I4649
sI252
I4650
sI253
I4651
sI254
I4652
ssI216
(dp56
I161
I4653
sI162
I4654
sI163
I4655
sI164
I4656
sI165
I4657
sI166
I4658
sI167
I4659
sI168
I4660
sI169
I4661
sI170
I4662
sI171
I4663
sI172
I4664
sI173
I4665
sI174
I4666
sI175
I4667
sI176
I4668
sI177
I4669
sI178
I4670
sI179
I4671
sI180
I4672
sI181
I4673
sI182
I4674
sI183
I4675
sI184
I4676
sI185
I4677
sI186
I4678
sI187
I4679
sI188
I4680
sI189
I4681
sI190
I4682
sI191
I4683
sI192
I4684
sI193
I4685
sI194
I4686
sI195
I4687
sI196
I4688
sI197
I4689
sI198
I4690
sI199
I4691
sI200
I4692
sI201
I4693
sI202
I4694
sI203
I4695
sI204
I4696
sI205
I4697
sI206
I4698
sI207
I4699
sI208
I4700
sI209
I4701
sI210
I4702
sI211
I4703
sI212
I4704
sI213
I4705
sI214
I4706
sI215
I4707
sI216
I4708
sI217
I4709
sI218
I4710
sI219
I4711
sI220
I4712
sI221
I4713
sI222
I4714
sI223
I4715
sI224
I4716
sI225
I4717
sI226
I4718
sI227
I4719
sI228
I4720
sI229
I4721
sI230
I4722
sI231
I4723
sI232
I4724
sI233
I4725
sI234
I4726
sI235
I4727
sI236
I4728
sI237
I4729
sI238
I4730
sI239
I4731
sI240
I4732
sI241
I4733
sI242
I4734
sI243
I4735
sI244
I4736
sI245
I4737
sI246
I4738
sI247
I4739
sI248
I4740
sI249
I4741
sI250
I4742
sI251
I4743
sI252
I4744
sI253
I4745
sI254
I4746
ssI217
(dp57
I161
I4747
sI162
I4748
sI163
I4749
sI164
I4750
sI165
I4751
sI166
I4752
sI167
I4753
sI168
I4754
sI169
I4755
sI170
I4756
sI171
I4757
sI172
I4758
sI173
I4759
sI174
I4760
sI175
I4761
sI176
I4762
sI177
I4763
sI178
I4764
sI179
I4765
sI180
I4766
sI181
I4767
sI182
I4768
sI183
I4769
sI184
I4770
sI185
I4771
sI186
I4772
sI187
I4773
sI188
I4774
sI189
I4775
sI190
I4776
sI191
I4777
sI192
I4778
sI193
I4779
sI194
I4780
sI195
I4781
sI196
I4782
sI197
I4783
sI198
I4784
sI199
I4785
sI200
I4786
sI201
I4787
sI202
I4788
sI203
I4789
sI204
I4790
sI205
I4791
sI206
I4792
sI207
I4793
sI208
I4794
sI209
I4795
sI210
I4796
sI211
I4797
sI212
I4798
sI213
I4799
sI214
I4800
sI215
I4801
sI216
I4802
sI217
I4803
sI218
I4804
sI219
I4805
sI220
I4806
sI221
I4807
sI222
I4808
sI223
I4809
sI224
I4810
sI225
I4811
sI226
I4812
sI227
I4813
sI228
I4814
sI229
I4815
sI230
I4816
sI231
I4817
sI232
I4818
sI233
I4819
sI234
I4820
sI235
I4821
sI236
I4822
sI237
I4823
sI238
I4824
sI239
I4825
sI240
I4826
sI241
I4827
sI242
I4828
sI243
I4829
sI244
I4830
sI245
I4831
sI246
I4832
sI247
I4833
sI248
I4834
sI249
I4835
sI250
I4836
sI251
I4837
sI252
I4838
sI253
I4839
sI254
I4840
ssI218
(dp58
I161
I4841
sI162
I4842
sI163
I4843
sI164
I4844
sI165
I4845
sI166
I4846
sI167
I4847
sI168
I4848
sI169
I4849
sI170
I4850
sI171
I4851
sI172
I4852
sI173
I4853
sI174
I4854
sI175
I4855
sI176
I4856
sI177
I4857
sI178
I4858
sI179
I4859
sI180
I4860
sI181
I4861
sI182
I4862
sI183
I4863
sI184
I4864
sI185
I4865
sI186
I4866
sI187
I4867
sI188
I4868
sI189
I4869
sI190
I4870
sI191
I4871
sI192
I4872
sI193
I4873
sI194
I4874
sI195
I4875
sI196
I4876
sI197
I4877
sI198
I4878
sI199
I4879
sI200
I4880
sI201
I4881
sI202
I4882
sI203
I4883
sI204
I4884
sI205
I4885
sI206
I4886
sI207
I4887
sI208
I4888
sI209
I4889
sI210
I4890
sI211
I4891
sI212
I4892
sI213
I4893
sI214
I4894
sI215
I4895
sI216
I4896
sI217
I4897
sI218
I4898
sI219
I4899
sI220
I4900
sI221
I4901
sI222
I4902
sI223
I4903
sI224
I4904
sI225
I4905
sI226
I4906
sI227
I4907
sI228
I4908
sI229
I4909
sI230
I4910
sI231
I4911
sI232
I4912
sI233
I4913
sI234
I4914
sI235
I4915
sI236
I4916
sI237
I4917
sI238
I4918
sI239
I4919
sI240
I4920
sI241
I4921
sI242
I4922
sI243
I4923
sI244
I4924
sI245
I4925
sI246
I4926
sI247
I4927
sI248
I4928
sI249
I4929
sI250
I4930
sI251
I4931
sI252
I4932
sI253
I4933
sI254
I4934
ssI219
(dp59
I161
I4935
sI162
I4936
sI163
I4937
sI164
I4938
sI165
I4939
sI166
I4940
sI167
I4941
sI168
I4942
sI169
I4943
sI170
I4944
sI171
I4945
sI172
I4946
sI173
I4947
sI174
I4948
sI175
I4949
sI176
I4950
sI177
I4951
sI178
I4952
sI179
I4953
sI180
I4954
sI181
I4955
sI182
I4956
sI183
I4957
sI184
I4958
sI185
I4959
sI186
I4960
sI187
I4961
sI188
I4962
sI189
I4963
sI190
I4964
sI191
I4965
sI192
I4966
sI193
I4967
sI194
I4968
sI195
I4969
sI196
I4970
sI197
I5151
sI198
I4971
sI199
I4972
sI200
I4973
sI201
I4974
sI202
I4975
sI203
I4976
sI204
I4977
sI205
I4978
sI206
I4979
sI207
I4980
sI208
I4981
sI209
I4982
sI210
I4983
sI211
I4984
sI212
I4985
sI213
I4986
sI214
I4987
sI215
I4988
sI216
I4989
sI217
I4990
sI218
I4991
sI219
I4992
sI220
I4993
sI221
I4994
sI222
I4995
sI223
I4996
sI224
I4997
sI225
I4998
sI226
I4999
sI227
I5000
sI228
I4922
sI229
I5001
sI230
I5002
sI231
I5003
sI232
I5004
sI233
I5005
sI234
I5006
sI235
I5007
sI236
I5008
sI237
I5009
sI238
I5010
sI239
I5011
sI240
I5012
sI241
I5013
sI242
I5014
sI243
I5015
sI244
I5016
sI245
I5017
sI246
I5018
sI247
I5019
sI248
I5020
sI249
I5021
sI250
I5022
sI251
I5023
sI252
I5024
sI253
I5025
sI254
I5026
ssI220
(dp60
I161
I5027
sI162
I5028
sI163
I5029
sI164
I5030
sI165
I7518
sI166
I5031
sI167
I5032
sI168
I5033
sI169
I5034
sI170
I5035
sI171
I5036
sI172
I5037
sI173
I5038
sI174
I5039
sI175
I5040
sI176
I5041
sI177
I5042
sI178
I5043
sI179
I5044
sI180
I5045
sI181
I5046
sI182
I5047
sI183
I5048
sI184
I5049
sI185
I5050
sI186
I5051
sI187
I5052
sI188
I5053
sI189
I5054
sI190
I5055
sI191
I5056
sI192
I5057
sI193
I5058
sI194
I5059
sI195
I5060
sI196
I5061
sI197
I5062
sI198
I5063
sI199
I5064
sI200
I5065
sI201
I5066
sI202
I5067
sI203
I5068
sI204
I5069
sI205
I5070
sI206
I5071
sI207
I5072
sI208
I5073
sI209
I5074
sI210
I5075
sI211
I5076
sI212
I5077
sI213
I5078
sI214
I5079
sI215
I5080
sI216
I5081
sI217
I5082
sI218
I5083
sI219
I5084
sI220
I5085
sI221
I5086
sI222
I5087
sI223
I5088
sI224
I5089
sI225
I5090
sI226
I5091
sI227
I5092
sI228
I5093
sI229
I5094
sI230
I5095
sI231
I5096
sI232
I5097
sI233
I5098
sI234
I5099
sI235
I5100
sI236
I5101
sI237
I5102
sI238
I5103
sI239
I5104
sI240
I5105
sI241
I5106
sI242
I5107
sI243
I5108
sI244
I5109
sI245
I5110
sI246
I5111
sI247
I5112
sI248
I5113
sI249
I5114
sI250
I5115
sI251
I5116
sI252
I5117
sI253
I5118
sI254
I5119
ssI221
(dp61
I161
I5120
sI162
I5121
sI163
I5122
sI164
I5123
sI165
I5079
sI166
I5124
sI167
I5125
sI168
I5126
sI169
I5127
sI170
I5128
sI171
I5129
sI172
I5130
sI173
I5131
sI174
I5132
sI175
I5133
sI176
I5134
sI177
I5135
sI178
I5136
sI179
I5137
sI180
I5138
sI181
I5139
sI182
I5140
sI183
I5141
sI184
I5142
sI185
I5143
sI186
I5144
sI187
I5145
sI188
I5146
sI189
I5147
sI190
I5148
sI191
I5149
sI192
I5150
sI193
I5151
sI194
I5152
sI195
I5153
sI196
I5154
sI197
I5155
sI198
I5156
sI199
I5157
sI200
I5158
sI201
I5159
sI202
I5160
sI203
I5161
sI204
I5162
sI205
I5163
sI206
I5164
sI207
I5165
sI208
I5166
sI209
I5167
sI210
I5168
sI211
I5169
sI212
I5170
sI213
I5109
sI214
I5171
sI215
I5172
sI216
I5173
sI217
I5174
sI218
I5175
sI219
I5176
sI220
I5177
sI221
I5178
sI222
I5179
sI223
I5180
sI224
I5181
sI225
I5182
sI226
I5183
sI227
I5184
sI228
I5185
sI229
I5186
sI230
I5187
sI231
I5188
sI232
I5189
sI233
I5190
sI234
I5191
sI235
I5192
sI236
I5193
sI237
I5194
sI238
I5195
sI239
I5196
sI240
I5197
sI241
I5198
sI242
I5199
sI243
I5200
sI244
I7607
sI245
I5201
sI246
I5202
sI247
I5203
sI248
I5204
sI249
I5205
sI250
I5206
sI251
I5207
sI252
I5208
sI253
I5209
sI254
I5210
ssI222
(dp62
I161
I5211
sI162
I5212
sI163
I5213
sI164
I5214
sI165
I5215
sI166
I5216
sI167
I5217
sI168
I5218
sI169
I5219
sI170
I5220
sI171
I5221
sI172
I5222
sI173
I5223
sI174
I5224
sI175
I5225
sI176
I5226
sI177
I5227
sI178
I5228
sI179
I5229
sI180
I5230
sI181
I5231
sI182
I5232
sI183
I5233
sI184
I5234
sI185
I5235
sI186
I5236
sI187
I5237
sI188
I5238
sI189
I5239
sI190
I5240
sI191
I5241
sI192
I5242
sI193
I5243
sI194
I5244
sI195
I5245
sI196
I5246
sI197
I5247
sI198
I5248
sI199
I5249
sI200
I5250
sI201
I5251
sI202
I5252
sI203
I5253
sI204
I5254
sI205
I5255
sI206
I5256
sI207
I5257
sI208
I5258
sI209
I5259
sI210
I5260
sI211
I5261
sI212
I5262
sI213
I5263
sI214
I5264
sI215
I5265
sI216
I5266
sI217
I5267
sI218
I5268
sI219
I5269
sI220
I5270
sI221
I5271
sI222
I5272
sI223
I5273
sI224
I5274
sI225
I5275
sI226
I5276
sI227
I5277
sI228
I5278
sI229
I5279
sI230
I5280
sI231
I5281
sI232
I5282
sI233
I5283
sI234
I5284
sI235
I5285
sI236
I5286
sI237
I5287
sI238
I5288
sI239
I5289
sI240
I5290
sI241
I5291
sI242
I5292
sI243
I5293
sI244
I5294
sI245
I5295
sI246
I5296
sI247
I5297
sI248
I5298
sI249
I5299
sI250
I5300
sI251
I5301
sI252
I5584
sI253
I5302
sI254
I5367
ssI223
(dp63
I161
I5303
sI162
I5304
sI163
I5305
sI164
I5306
sI165
I5307
sI166
I5308
sI167
I5309
sI168
I5310
sI169
I5311
sI170
I5312
sI171
I5313
sI172
I5314
sI173
I5315
sI174
I5316
sI175
I5317
sI176
I5318
sI177
I5319
sI178
I5320
sI179
I7083
sI180
I5321
sI181
I5322
sI182
I5323
sI183
I5324
sI184
I5325
sI185
I5326
sI186
I5327
sI187
I5328
sI188
I5329
sI189
I5330
sI190
I5331
sI191
I5332
sI192
I5333
sI193
I5334
sI194
I5335
sI195
I5336
sI196
I5337
sI197
I5338
sI198
I5339
sI199
I5340
sI200
I5341
sI201
I5342
sI202
I5343
sI203
I5344
sI204
I5345
sI205
I5346
sI206
I5347
sI207
I5348
sI208
I5349
sI209
I5350
sI210
I5351
sI211
I5352
sI212
I5353
sI213
I5354
sI214
I5355
sI215
I5356
sI216
I5357
sI217
I5358
sI218
I5359
sI219
I5360
sI220
I5361
sI221
I5362
sI222
I5363
sI223
I5364
sI224
I5365
sI225
I5362
sI226
I5366
sI227
I5367
sI228
I5368
sI229
I5369
sI230
I5370
sI231
I5371
sI232
I5485
sI233
I5372
sI234
I5373
sI235
I5374
sI236
I5375
sI237
I5376
sI238
I5377
sI239
I5378
sI240
I5379
sI241
I5380
sI242
I5381
sI243
I5382
sI244
I5383
sI245
I5384
sI246
I5385
sI247
I5386
sI248
I5387
sI249
I5388
sI250
I5389
sI251
I5390
sI252
I5391
sI253
I5392
sI254
I5393
ssI224
(dp64
I161
I5394
sI162
I5395
sI163
I5396
sI164
I5397
sI165
I5398
sI166
I5399
sI167
I5400
sI168
I5401
sI169
I5402
sI170
I5403
sI171
I5404
sI172
I5405
sI173
I5406
sI174
I5407
sI175
I5408
sI176
I5409
sI177
I5410
sI178
I5411
sI179
I5412
sI180
I5413
sI181
I5414
sI182
I5415
sI183
I5416
sI184
I5417
sI185
I5418
sI186
I5419
sI187
I5420
sI188
I5421
sI189
I5422
sI190
I5423
sI191
I5424
sI192
I5425
sI193
I5426
sI194
I5427
sI195
I5428
sI196
I5429
sI197
I5430
sI198
I5431
sI199
I5432
sI200
I5433
sI201
I5434
sI202
I5435
sI203
I5436
sI204
I5437
sI205
I5438
sI206
I5439
sI207
I5440
sI208
I5441
sI209
I5442
sI210
I5443
sI211
I5444
sI212
I5445
sI213
I5446
sI214
I5447
sI215
I5448
sI216
I5449
sI217
I5450
sI218
I5451
sI219
I5452
sI220
I5453
sI221
I5454
sI222
I5455
sI223
I5456
sI224
I5457
sI225
I5458
sI226
I5459
sI227
I5460
sI228
I5461
sI229
I5462
sI230
I5463
sI231
I5464
sI232
I5465
sI233
I5466
sI234
I5467
sI235
I5468
sI236
I5469
sI237
I5470
sI238
I5471
sI239
I5472
sI240
I5473
sI241
I6001
sI242
I5474
sI243
I5475
sI244
I5476
sI245
I5477
sI246
I5478
sI247
I5479
sI248
I5480
sI249
I5481
sI250
I5482
sI251
I5483
sI252
I5484
sI253
I5485
sI254
I5486
ssI225
(dp65
I161
I5487
sI162
I5488
sI163
I5489
sI164
I5490
sI165
I5491
sI166
I5492
sI167
I5493
sI168
I5494
sI169
I5495
sI170
I5496
sI171
I5497
sI172
I5498
sI173
I5460
sI174
I5499
sI175
I5500
sI176
I5501
sI177
I5502
sI178
I5503
sI179
I5504
sI180
I5505
sI181
I5506
sI182
I5507
sI183
I5508
sI184
I5509
sI185
I5510
sI186
I5511
sI187
I5512
sI188
I5513
sI189
I5514
sI190
I5515
sI191
I5516
sI192
I5517
sI193
I5518
sI194
I5519
sI195
I5520
sI196
I5521
sI197
I5522
sI198
I5523
sI199
I5524
sI200
I5525
sI201
I5526
sI202
I5527
sI203
I5528
sI204
I5529
sI205
I5530
sI206
I5531
sI207
I5532
sI208
I5533
sI209
I5534
sI210
I5535
sI211
I5536
sI212
I5537
sI213
I5538
sI214
I5539
sI215
I5540
sI216
I5541
sI217
I5542
sI218
I5543
sI219
I5544
sI220
I5545
sI221
I5546
sI222
I5547
sI223
I5548
sI224
I5549
sI225
I5550
sI226
I5551
sI227
I5552
sI228
I5553
sI229
I5554
sI230
I5555
sI231
I5556
sI232
I5557
sI233
I5558
sI234
I5559
sI235
I5560
sI236
I5561
sI237
I5317
sI238
I5562
sI239
I5563
sI240
I5564
sI241
I5565
sI242
I5566
sI243
I5567
sI244
I5568
sI245
I5569
sI246
I5570
sI247
I5571
sI248
I5572
sI249
I5573
sI250
I5574
sI251
I5575
sI252
I5576
sI253
I5577
sI254
I5578
ssI226
(dp66
I161
I5579
sI162
I5580
sI163
I5581
sI164
I5582
sI165
I5583
sI166
I5584
sI167
I5585
sI168
I5586
sI169
I5587
sI170
I5588
sI171
I5589
sI172
I5590
sI173
I5591
sI174
I5592
sI175
I5593
sI176
I5594
sI177
I5595
sI178
I5596
sI179
I5597
sI180
I5598
sI181
I5599
sI182
I5600
sI183
I5601
sI184
I5602
sI185
I5603
sI186
I5604
sI187
I5605
sI188
I5606
sI189
I5607
sI190
I5608
sI191
I5609
sI192
I5610
sI193
I5611
sI194
I5612
sI195
I5613
sI196
I5614
sI197
I5615
sI198
I5616
sI199
I5617
sI200
I5618
sI201
I5619
sI202
I5620
sI203
I5621
sI204
I5622
sI205
I5623
sI206
I5624
sI207
I5625
sI208
I5626
sI209
I5627
sI210
I5628
sI211
I5629
sI212
I5630
sI213
I5631
sI214
I5632
sI215
I5633
sI216
I5634
sI217
I5635
sI218
I5636
sI219
I5637
sI220
I5638
sI221
I5639
sI222
I5640
sI223
I5641
sI224
I5642
sI225
I5643
sI226
I5644
sI227
I5645
sI228
I5646
sI229
I5647
sI230
I5648
sI231
I5649
sI232
I5650
sI233
I5651
sI234
I5652
sI235
I5653
sI236
I5654
sI237
I5655
sI238
I5656
sI239
I5657
sI240
I5658
sI241
I5659
sI242
I5660
sI243
I5661
sI244
I5662
sI245
I5663
sI246
I5664
sI247
I5665
sI248
I5666
sI249
I5667
sI250
I5668
sI251
I5669
sI252
I5670
sI253
I5671
sI254
I5672
ssI227
(dp67
I161
I5673
sI162
I5674
sI163
I5675
sI164
I5676
sI165
I5677
sI166
I5678
sI167
I5679
sI168
I5680
sI169
I5681
sI170
I5682
sI171
I5683
sI172
I5684
sI173
I5685
sI174
I5686
sI175
I5687
sI176
I5688
sI177
I5689
sI178
I5690
sI179
I5691
sI180
I5692
sI181
I5693
sI182
I5694
sI183
I5695
sI184
I5696
sI185
I5697
sI186
I5698
sI187
I5699
sI188
I5700
sI189
I5701
sI190
I5702
sI191
I5703
sI192
I5704
sI193
I5705
sI194
I5706
sI195
I5707
sI196
I5708
sI197
I5709
sI198
I5710
sI199
I5711
sI200
I5712
sI201
I5713
sI202
I5714
sI203
I5715
sI204
I5716
sI205
I5717
sI206
I5718
sI207
I5719
sI208
I5720
sI209
I5721
sI210
I5722
sI211
I5723
sI212
I5724
sI213
I5725
sI214
I5726
sI215
I5727
sI216
I5728
sI217
I5729
sI218
I5730
sI219
I5731
sI220
I5732
sI221
I5733
sI222
I5734
sI223
I5735
sI224
I5736
sI225
I5737
sI226
I5738
sI227
I5739
sI228
I5740
sI229
I5741
sI230
I5742
sI231
I5743
sI232
I5744
sI233
I5745
sI234
I5746
sI235
I5747
sI236
I5748
sI237
I5749
sI238
I5750
sI239
I5751
sI240
I5752
sI241
I5753
sI242
I5754
sI243
I5755
sI244
I5756
sI245
I7009
sI246
I5757
sI247
I5758
sI248
I5759
sI249
I5760
sI250
I5761
sI251
I5762
sI252
I5763
sI253
I5764
sI254
I5765
ssI228
(dp68
I161
I7370
sI162
I5766
sI163
I5767
sI164
I5768
sI165
I5769
sI166
I5770
sI167
I5771
sI168
I5772
sI169
I5678
sI170
I5773
sI171
I5774
sI172
I5775
sI173
I5776
sI174
I5777
sI175
I5778
sI176
I5779
sI177
I5780
sI178
I5781
sI179
I5782
sI180
I5783
sI181
I5784
sI182
I5785
sI183
I5786
sI184
I5787
sI185
I5788
sI186
I5789
sI187
I5790
sI188
I5791
sI189
I5792
sI190
I5793
sI191
I5794
sI192
I5795
sI193
I5796
sI194
I5797
sI195
I5798
sI196
I5799
sI197
I5800
sI198
I5801
sI199
I5802
sI200
I5803
sI201
I5804
sI202
I5805
sI203
I5806
sI204
I5807
sI205
I5808
sI206
I5809
sI207
I5810
sI208
I5811
sI209
I5812
sI210
I5813
sI211
I5814
sI212
I5815
sI213
I5816
sI214
I5817
sI215
I5818
sI216
I5819
sI217
I5820
sI218
I5821
sI219
I5822
sI220
I5823
sI221
I5824
sI222
I5825
sI223
I5826
sI224
I5827
sI225
I5828
sI226
I5829
sI227
I5830
sI228
I5831
sI229
I5832
sI230
I5833
sI231
I5834
sI232
I5835
sI233
I5836
sI234
I5837
sI235
I5838
sI236
I5839
sI237
I5840
sI238
I5841
sI239
I5842
sI240
I5843
sI241
I5844
sI242
I5845
sI243
I5846
sI244
I5847
sI245
I5848
sI246
I5849
sI247
I5850
sI248
I5851
sI249
I5852
sI250
I5853
sI251
I5854
sI252
I5855
sI253
I5856
sI254
I5857
ssI229
(dp69
I161
I5858
sI162
I5859
sI163
I5860
sI164
I5861
sI165
I5862
sI166
I5863
sI167
I5864
sI168
I5865
sI169
I5866
sI170
I5867
sI171
I5868
sI172
I5869
sI173
I5870
sI174
I5874
sI175
I5871
sI176
I5872
sI177
I4425
sI178
I4426
sI179
I5873
sI180
I5874
sI181
I5875
sI182
I5876
sI183
I5877
sI184
I5878
sI185
I4427
sI186
I5879
sI187
I4429
sI188
I4430
sI189
I5880
sI190
I5881
sI191
I5882
sI192
I5883
sI193
I5884
sI194
I5885
sI195
I5886
sI196
I4431
sI197
I5887
sI198
I5888
sI199
I5889
sI200
I5890
sI201
I5891
sI202
I5892
sI203
I5893
sI204
I5894
sI205
I5895
sI206
I4435
sI207
I5896
sI208
I4436
sI209
I5897
sI210
I4437
sI211
I5898
sI212
I5899
sI213
I5900
sI214
I4439
sI215
I5901
sI216
I5902
sI217
I5903
sI218
I5904
sI219
I5905
sI220
I5906
sI221
I5907
sI222
I5908
sI223
I5909
sI224
I5910
sI225
I5911
sI226
I5912
sI227
I5913
sI228
I5914
sI229
I5915
sI230
I5916
sI231
I5917
sI232
I5918
sI233
I5919
sI234
I5920
sI235
I5921
sI236
I5922
sI237
I5923
sI238
I5924
sI239
I5925
sI240
I5926
sI241
I5927
sI242
I5928
sI243
I5929
sI244
I5930
sI245
I5931
sI246
I5932
sI247
I5933
sI248
I5934
sI249
I5935
sI250
I4442
sI251
I4443
sI252
I4159
sI253
I5936
sI254
I4444
ssI230
(dp70
I161
I4447
sI162
I5937
sI163
I5938
sI164
I4449
sI165
I5939
sI166
I5940
sI167
I4450
sI168
I5941
sI169
I5942
sI170
I5943
sI171
I5944
sI172
I5945
sI173
I4453
sI174
I5946
sI175
I4455
sI176
I4456
sI177
I4457
sI178
I5947
sI179
I4458
sI180
I5948
sI181
I5949
sI182
I5950
sI183
I4459
sI184
I4460
sI185
I5951
sI186
I5952
sI187
I5953
sI188
I4463
sI189
I5954
sI190
I5955
sI191
I5956
sI192
I5957
sI193
I5958
sI194
I5959
sI195
I5960
sI196
I4160
sI197
I5961
sI198
I4465
sI199
I4466
sI200
I5962
sI201
I5963
sI202
I4161
sI203
I5964
sI204
I5965
sI205
I5966
sI206
I5967
sI207
I5968
sI208
I5969
sI209
I5970
sI210
I4468
sI211
I5971
sI212
I5972
sI213
I5973
sI214
I4469
sI215
I5974
sI216
I5975
sI217
I4470
sI218
I5976
sI219
I5977
sI220
I4162
sI221
I5978
sI222
I5979
sI223
I4471
sI224
I5980
sI225
I4472
sI226
I5981
sI227
I5982
sI228
I4474
sI229
I4473
sI230
I4475
sI231
I5983
sI232
I4476
sI233
I5984
sI234
I4478
sI235
I4479
sI236
I6447
sI237
I5985
sI238
I5986
sI239
I4481
sI240
I5987
sI241
I4482
sI242
I5460
sI243
I5988
sI244
I5989
sI245
I4483
sI246
I4163
sI247
I4166
sI248
I5990
sI249
I4485
sI250
I5991
sI251
I5992
sI252
I5993
sI253
I5994
sI254
I5995
ssI231
(dp71
I161
I4487
sI162
I5996
sI163
I5997
sI164
I5998
sI165
I5999
sI166
I4488
sI167
I6000
sI168
I6001
sI169
I4489
sI170
I4491
sI171
I6002
sI172
I4167
sI173
I4493
sI174
I6003
sI175
I6004
sI176
I4494
sI177
I6005
sI178
I6006
sI179
I6007
sI180
I6008
sI181
I6009
sI182
I6010
sI183
I6011
sI184
I6012
sI185
I6013
sI186
I6014
sI187
I6015
sI188
I6016
sI189
I6017
sI190
I6018
sI191
I4495
sI192
I6019
sI193
I7783
sI194
I6020
sI195
I6021
sI196
I6022
sI197
I6023
sI198
I4497
sI199
I4499
sI200
I6024
sI201
I6025
sI202
I6026
sI203
I4501
sI204
I6027
sI205
I4502
sI206
I6028
sI207
I4503
sI208
I4504
sI209
I6029
sI210
I6030
sI211
I4506
sI212
I6031
sI213
I6032
sI214
I6033
sI215
I6034
sI216
I6035
sI217
I6036
sI218
I6037
sI219
I6038
sI220
I6039
sI221
I6040
sI222
I6041
sI223
I4508
sI224
I6042
sI225
I6043
sI226
I6044
sI227
I6045
sI228
I4509
sI229
I6046
sI230
I4510
sI231
I6047
sI232
I6048
sI233
I6049
sI234
I6050
sI235
I6051
sI236
I6052
sI237
I6053
sI238
I6054
sI239
I6055
sI240
I6056
sI241
I6057
sI242
I6058
sI243
I6059
sI244
I6060
sI245
I6061
sI246
I6062
sI247
I5797
sI248
I6063
sI249
I6064
sI250
I6065
sI251
I6066
sI252
I6067
sI253
I6068
sI254
I6069
ssI232
(dp72
I161
I6070
sI162
I6071
sI163
I6072
sI164
I6073
sI165
I6074
sI166
I6075
sI167
I6076
sI168
I6077
sI169
I6078
sI170
I6079
sI171
I6080
sI172
I6081
sI173
I6082
sI174
I6083
sI175
I6084
sI176
I6085
sI177
I6086
sI178
I6087
sI179
I6088
sI180
I6089
sI181
I6090
sI182
I6091
sI183
I6092
sI184
I6093
sI185
I6094
sI186
I6095
sI187
I6096
sI188
I6097
sI189
I6098
sI190
I6099
sI191
I6100
sI192
I6101
sI193
I6102
sI194
I6103
sI195
I6104
sI196
I6105
sI197
I6106
sI198
I6107
sI199
I6108
sI200
I6109
sI201
I6110
sI202
I6111
sI203
I6112
sI204
I6113
sI205
I6114
sI206
I6115
sI207
I6116
sI208
I6117
sI209
I6118
sI210
I6119
sI211
I6120
sI212
I6121
sI213
I6122
sI214
I6123
sI215
I6124
sI216
I6125
sI217
I6126
sI218
I6127
sI219
I6128
sI220
I6129
sI221
I6130
sI222
I6131
sI223
I6132
sI224
I6133
sI225
I6134
sI226
I6135
sI227
I6136
sI228
I6137
sI229
I6138
sI230
I6139
sI231
I4551
sI232
I4552
sI233
I6140
sI234
I6141
sI235
I6142
sI236
I6143
sI237
I6144
sI238
I6145
sI239
I6146
sI240
I4553
sI241
I4180
sI242
I6147
sI243
I6148
sI244
I6149
sI245
I6150
sI246
I6151
sI247
I4555
sI248
I6152
sI249
I5800
sI250
I6153
sI251
I4556
sI252
I6154
sI253
I6155
sI254
I4557
ssI233
(dp73
I161
I6156
sI162
I6157
sI163
I6158
sI164
I6159
sI165
I6160
sI166
I6161
sI167
I4560
sI168
I6162
sI169
I6163
sI170
I6164
sI171
I6165
sI172
I4561
sI173
I6166
sI174
I6167
sI175
I6168
sI176
I6169
sI177
I6170
sI178
I6171
sI179
I6172
sI180
I6173
sI181
I6174
sI182
I6175
sI183
I6176
sI184
I6177
sI185
I6178
sI186
I6179
sI187
I6180
sI188
I6181
sI189
I6182
sI190
I6183
sI191
I6184
sI192
I6185
sI193
I6186
sI194
I6187
sI195
I6188
sI196
I6189
sI197
I6190
sI198
I6191
sI199
I6192
sI200
I6193
sI201
I6194
sI202
I6195
sI203
I6196
sI204
I4563
sI205
I6197
sI206
I6198
sI207
I6199
sI208
I6200
sI209
I6201
sI210
I6202
sI211
I6203
sI212
I6204
sI213
I6205
sI214
I6206
sI215
I6207
sI216
I6208
sI217
I6209
sI218
I6210
sI219
I6211
sI220
I6212
sI221
I6213
sI222
I6214
sI223
I6215
sI224
I6216
sI225
I6217
sI226
I6218
sI227
I6219
sI228
I6220
sI229
I6221
sI230
I6222
sI231
I6223
sI232
I6224
sI233
I6225
sI234
I6226
sI235
I6227
sI236
I6228
sI237
I6229
sI238
I6230
sI239
I6231
sI240
I6232
sI241
I6233
sI242
I6234
sI243
I6235
sI244
I6236
sI245
I6237
sI246
I6238
sI247
I7988
sI248
I6239
sI249
I6240
sI250
I6241
sI251
I6242
sI252
I6243
sI253
I6244
sI254
I6245
ssI234
(dp74
I161
I6246
sI162
I6247
sI163
I6248
sI164
I6249
sI165
I6250
sI166
I6251
sI167
I6252
sI168
I6253
sI169
I6254
sI170
I6255
sI171
I6256
sI172
I6257
sI173
I6258
sI174
I6259
sI175
I6260
sI176
I6261
sI177
I6262
sI178
I6263
sI179
I6264
sI180
I6265
sI181
I6266
sI182
I6267
sI183
I6268
sI184
I6269
sI185
I6270
sI186
I6271
sI187
I6272
sI188
I6273
sI189
I6274
sI190
I6275
sI191
I6276
sI192
I6277
sI193
I6123
sI194
I6278
sI195
I6279
sI196
I6280
sI197
I6281
sI198
I6282
sI199
I6283
sI200
I6284
sI201
I6285
sI202
I6286
sI203
I6287
sI204
I6288
sI205
I6289
sI206
I6290
sI207
I6291
sI208
I6292
sI209
I6293
sI210
I6294
sI211
I6295
sI212
I6296
sI213
I6297
sI214
I6298
sI215
I6299
sI216
I6300
sI217
I6301
sI218
I6302
sI219
I6303
sI220
I6304
sI221
I6305
sI222
I6306
sI223
I6307
sI224
I6308
sI225
I6309
sI226
I6310
sI227
I6311
sI228
I6312
sI229
I4577
sI230
I6313
sI231
I6314
sI232
I6315
sI233
I6316
sI234
I6317
sI235
I6318
sI236
I6319
sI237
I6320
sI238
I6321
sI239
I6322
sI240
I6323
sI241
I6324
sI242
I6325
sI243
I6326
sI244
I4183
sI245
I6327
sI246
I6328
sI247
I4579
sI248
I6329
sI249
I6330
sI250
I6331
sI251
I6332
sI252
I4581
sI253
I6333
sI254
I4582
ssI235
(dp75
I161
I6334
sI162
I6335
sI163
I6336
sI164
I4584
sI165
I6337
sI166
I6338
sI167
I4586
sI168
I6339
sI169
I4588
sI170
I4184
sI171
I6340
sI172
I6341
sI173
I6342
sI174
I6343
sI175
I6344
sI176
I6345
sI177
I6346
sI178
I6347
sI179
I6348
sI180
I6349
sI181
I6350
sI182
I6351
sI183
I6352
sI184
I6353
sI185
I6354
sI186
I4590
sI187
I4591
sI188
I6355
sI189
I4592
sI190
I6356
sI191
I6357
sI192
I6358
sI193
I4593
sI194
I4595
sI195
I6359
sI196
I6360
sI197
I6361
sI198
I4596
sI199
I4597
sI200
I6362
sI201
I6363
sI202
I6364
sI203
I6365
sI204
I4599
sI205
I6366
sI206
I6367
sI207
I4600
sI208
I4601
sI209
I4602
sI210
I5552
sI211
I6368
sI212
I6369
sI213
I6370
sI214
I6371
sI215
I6372
sI216
I4603
sI217
I6373
sI218
I6374
sI219
I6375
sI220
I6376
sI221
I6377
sI222
I6378
sI223
I6379
sI224
I6380
sI225
I6381
sI226
I6382
sI227
I6383
sI228
I6384
sI229
I6385
sI230
I6386
sI231
I6387
sI232
I6388
sI233
I6389
sI234
I6390
sI235
I6391
sI236
I6392
sI237
I6393
sI238
I6394
sI239
I6395
sI240
I6396
sI241
I6397
sI242
I6398
sI243
I6399
sI244
I6400
sI245
I6401
sI246
I6402
sI247
I6403
sI248
I6404
sI249
I6405
sI250
I6406
sI251
I6407
sI252
I6408
sI253
I6409
sI254
I6410
ssI236
(dp76
I161
I6411
sI162
I6412
sI163
I6413
sI164
I6414
sI165
I6415
sI166
I4614
sI167
I4616
sI168
I6416
sI169
I6417
sI170
I4618
sI171
I6418
sI172
I6419
sI173
I6420
sI174
I6421
sI175
I5950
sI176
I4620
sI177
I4621
sI178
I4187
sI179
I6422
sI180
I6423
sI181
I4625
sI182
I6424
sI183
I6425
sI184
I4627
sI185
I6426
sI186
I4629
sI187
I6427
sI188
I6428
sI189
I6429
sI190
I6430
sI191
I6431
sI192
I4632
sI193
I4633
sI194
I6432
sI195
I6433
sI196
I6434
sI197
I4634
sI198
I4636
sI199
I6435
sI200
I6436
sI201
I4188
sI202
I4189
sI203
I6437
sI204
I6438
sI205
I6439
sI206
I6440
sI207
I6441
sI208
I6442
sI209
I6443
sI210
I6444
sI211
I6445
sI212
I6446
sI213
I4638
sI214
I6447
sI215
I6448
sI216
I6449
sI217
I6450
sI218
I6451
sI219
I6452
sI220
I6453
sI221
I4640
sI222
I4641
sI223
I6454
sI224
I6455
sI225
I4642
sI226
I6456
sI227
I6457
sI228
I4644
sI229
I6458
sI230
I6459
sI231
I4645
sI232
I4646
sI233
I6460
sI234
I6461
sI235
I6462
sI236
I6463
sI237
I6464
sI238
I6465
sI239
I6466
sI240
I6467
sI241
I6468
sI242
I6469
sI243
I6470
sI244
I6471
sI245
I6472
sI246
I6473
sI247
I4647
sI248
I4648
sI249
I6474
sI250
I4650
sI251
I6475
sI252
I6476
sI253
I6477
sI254
I6478
ssI237
(dp77
I161
I4653
sI162
I4654
sI163
I4655
sI164
I6479
sI165
I6480
sI166
I6481
sI167
I6482
sI168
I6483
sI169
I6484
sI170
I6485
sI171
I6486
sI172
I6487
sI173
I6488
sI174
I6489
sI175
I6490
sI176
I6491
sI177
I6492
sI178
I6493
sI179
I6494
sI180
I6495
sI181
I6496
sI182
I6497
sI183
I6498
sI184
I6499
sI185
I6500
sI186
I6501
sI187
I6502
sI188
I6503
sI189
I6504
sI190
I6505
sI191
I6506
sI192
I6507
sI193
I6508
sI194
I6509
sI195
I6510
sI196
I6511
sI197
I6512
sI198
I6513
sI199
I6514
sI200
I6515
sI201
I6516
sI202
I6517
sI203
I6518
sI204
I6519
sI205
I6520
sI206
I6521
sI207
I6522
sI208
I6523
sI209
I6524
sI210
I6525
sI211
I6526
sI212
I6527
sI213
I6528
sI214
I6529
sI215
I6530
sI216
I6531
sI217
I6532
sI218
I6533
sI219
I6534
sI220
I6535
sI221
I6536
sI222
I6537
sI223
I6538
sI224
I6539
sI225
I6540
sI226
I6541
sI227
I6542
sI228
I6543
sI229
I6544
sI230
I6545
sI231
I6546
sI232
I6547
sI233
I6548
sI234
I6549
sI235
I6550
sI236
I6551
sI237
I6552
sI238
I5351
sI239
I6553
sI240
I6554
sI241
I6555
sI242
I6556
sI243
I6557
sI244
I6558
sI245
I6559
sI246
I6560
sI247
I6561
sI248
I6562
sI249
I6563
sI250
I6564
sI251
I6565
sI252
I6566
sI253
I6567
sI254
I6568
ssI238
(dp78
I161
I6569
sI162
I6570
sI163
I6571
sI164
I6572
sI165
I6573
sI166
I6574
sI167
I6575
sI168
I6576
sI169
I6577
sI170
I6578
sI171
I6579
sI172
I6580
sI173
I6581
sI174
I6582
sI175
I6583
sI176
I6584
sI177
I6585
sI178
I6586
sI179
I6587
sI180
I6588
sI181
I6589
sI182
I6590
sI183
I6591
sI184
I6592
sI185
I6593
sI186
I6594
sI187
I6595
sI188
I6596
sI189
I6597
sI190
I6598
sI191
I6599
sI192
I6600
sI193
I6601
sI194
I6602
sI195
I6603
sI196
I6604
sI197
I6605
sI198
I6606
sI199
I6607
sI200
I6608
sI201
I6609
sI202
I6610
sI203
I6611
sI204
I6612
sI205
I6613
sI206
I6614
sI207
I6615
sI208
I6616
sI209
I6617
sI210
I6618
sI211
I6619
sI212
I6620
sI213
I6621
sI214
I6622
sI215
I6623
sI216
I6624
sI217
I6625
sI218
I6626
sI219
I6494
sI220
I6627
sI221
I6628
sI222
I6629
sI223
I6630
sI224
I6631
sI225
I6632
sI226
I6633
sI227
I6634
sI228
I6635
sI229
I6636
sI230
I6637
sI231
I6638
sI232
I6639
sI233
I6640
sI234
I6641
sI235
I6642
sI236
I6643
sI237
I6644
sI238
I6645
sI239
I6646
sI240
I6647
sI241
I6648
sI242
I6649
sI243
I6650
sI244
I6651
sI245
I6652
sI246
I6653
sI247
I6654
sI248
I6655
sI249
I6656
sI250
I6657
sI251
I6658
sI252
I6659
sI253
I6660
sI254
I6661
ssI239
(dp79
I161
I6662
sI162
I6663
sI163
I6664
sI164
I6665
sI165
I6666
sI166
I6667
sI167
I6668
sI168
I6669
sI169
I6670
sI170
I6671
sI171
I6672
sI172
I6673
sI173
I6674
sI174
I6675
sI175
I6676
sI176
I6677
sI177
I6678
sI178
I6679
sI179
I6680
sI180
I6681
sI181
I6682
sI182
I6683
sI183
I6684
sI184
I6685
sI185
I6686
sI186
I6687
sI187
I6688
sI188
I6689
sI189
I6690
sI190
I6691
sI191
I6692
sI192
I6693
sI193
I6694
sI194
I6695
sI195
I6696
sI196
I6697
sI197
I6698
sI198
I6699
sI199
I6700
sI200
I6701
sI201
I6702
sI202
I6703
sI203
I6704
sI204
I6705
sI205
I6706
sI206
I6707
sI207
I6708
sI208
I6709
sI209
I6710
sI210
I6711
sI211
I6712
sI212
I6713
sI213
I6714
sI214
I6715
sI215
I6716
sI216
I6717
sI217
I6718
sI218
I6719
sI219
I6720
sI220
I6721
sI221
I6722
sI222
I6723
sI223
I6724
sI224
I6725
sI225
I6726
sI226
I6727
sI227
I6728
sI228
I6729
sI229
I6730
sI230
I6731
sI231
I6732
sI232
I6733
sI233
I6734
sI234
I6735
sI235
I6736
sI236
I6737
sI237
I6738
sI238
I6739
sI239
I6740
sI240
I6741
sI241
I6742
sI242
I6743
sI243
I6744
sI244
I6745
sI245
I6746
sI246
I6747
sI247
I6748
sI248
I6749
sI249
I6750
sI250
I6751
sI251
I6752
sI252
I6753
sI253
I6754
sI254
I6755
ssI240
(dp80
I161
I6756
sI162
I6757
sI163
I6758
sI164
I6759
sI165
I6760
sI166
I6761
sI167
I6762
sI168
I6763
sI169
I6764
sI170
I6765
sI171
I6766
sI172
I6767
sI173
I6768
sI174
I6769
sI175
I6770
sI176
I6771
sI177
I6772
sI178
I6773
sI179
I6774
sI180
I6775
sI181
I6776
sI182
I6777
sI183
I6778
sI184
I6779
sI185
I6780
sI186
I6781
sI187
I6782
sI188
I6783
sI189
I6784
sI190
I6785
sI191
I6786
sI192
I6787
sI193
I6788
sI194
I6789
sI195
I6790
sI196
I6791
sI197
I6792
sI198
I6793
sI199
I6794
sI200
I6795
sI201
I6796
sI202
I6797
sI203
I6798
sI204
I6799
sI205
I6800
sI206
I6801
sI207
I6802
sI208
I6803
sI209
I6804
sI210
I6805
sI211
I6806
sI212
I6807
sI213
I6808
sI214
I6809
sI215
I6810
sI216
I6811
sI217
I6812
sI218
I6813
sI219
I6814
sI220
I6815
sI221
I6816
sI222
I6817
sI223
I6818
sI224
I6819
sI225
I6820
sI226
I6821
sI227
I6822
sI228
I6823
sI229
I6824
sI230
I6825
sI231
I6826
sI232
I6827
sI233
I6828
sI234
I6829
sI235
I6830
sI236
I6831
sI237
I6832
sI238
I6833
sI239
I6834
sI240
I6835
sI241
I6836
sI242
I6837
sI243
I6838
sI244
I6839
sI245
I6840
sI246
I6841
sI247
I6842
sI248
I6843
sI249
I6844
sI250
I6845
sI251
I6846
sI252
I6847
sI253
I6848
sI254
I6849
ssI241
(dp81
I161
I6850
sI162
I6851
sI163
I6852
sI164
I6853
sI165
I6854
sI166
I6855
sI167
I6856
sI168
I6857
sI169
I6858
sI170
I6859
sI171
I6860
sI172
I6861
sI173
I6862
sI174
I6863
sI175
I6864
sI176
I6865
sI177
I6866
sI178
I6867
sI179
I6868
sI180
I6869
sI181
I6870
sI182
I6871
sI183
I6872
sI184
I6873
sI185
I6874
sI186
I6875
sI187
I6876
sI188
I6877
sI189
I6878
sI190
I6879
sI191
I6880
sI192
I6881
sI193
I6882
sI194
I6883
sI195
I6884
sI196
I6885
sI197
I6886
sI198
I6887
sI199
I6888
sI200
I6889
sI201
I6890
sI202
I6891
sI203
I6892
sI204
I6893
sI205
I6894
sI206
I6895
sI207
I6896
sI208
I6897
sI209
I6898
sI210
I6899
sI211
I6900
sI212
I6901
sI213
I6902
sI214
I6903
sI215
I6904
sI216
I6905
sI217
I6906
sI218
I6907
sI219
I6908
sI220
I6909
sI221
I6910
sI222
I6911
sI223
I6912
sI224
I6913
sI225
I6914
sI226
I6915
sI227
I6916
sI228
I6917
sI229
I6918
sI230
I6919
sI231
I6920
sI232
I6921
sI233
I6922
sI234
I6923
sI235
I6924
sI236
I6925
sI237
I6926
sI238
I6927
sI239
I6928
sI240
I6929
sI241
I6930
sI242
I6931
sI243
I6932
sI244
I6933
sI245
I6934
sI246
I6935
sI247
I6936
sI248
I6937
sI249
I6938
sI250
I6939
sI251
I6940
sI252
I6941
sI253
I6942
sI254
I6943
ssI242
(dp82
I161
I6944
sI162
I6945
sI163
I6946
sI164
I6947
sI165
I6948
sI166
I6949
sI167
I6950
sI168
I6951
sI169
I6952
sI170
I6953
sI171
I6954
sI172
I6955
sI173
I6956
sI174
I6957
sI175
I6958
sI176
I6959
sI177
I6960
sI178
I6961
sI179
I6962
sI180
I6963
sI181
I6964
sI182
I6965
sI183
I6966
sI184
I6967
sI185
I6968
sI186
I6969
sI187
I6970
sI188
I6971
sI189
I5731
sI190
I6972
sI191
I6973
sI192
I6974
sI193
I6975
sI194
I6976
sI195
I6977
sI196
I6978
sI197
I6979
sI198
I6980
sI199
I6981
sI200
I6982
sI201
I6983
sI202
I6984
sI203
I6985
sI204
I6986
sI205
I6987
sI206
I6988
sI207
I6989
sI208
I6990
sI209
I6991
sI210
I6992
sI211
I6993
sI212
I6994
sI213
I6995
sI214
I6996
sI215
I6997
sI216
I6998
sI217
I6999
sI218
I7000
sI219
I7001
sI220
I7002
sI221
I7003
sI222
I7004
sI223
I7005
sI224
I7006
sI225
I7007
sI226
I7008
sI227
I7009
sI228
I7010
sI229
I7011
sI230
I7012
sI231
I7013
sI232
I7014
sI233
I7015
sI234
I7016
sI235
I7017
sI236
I7018
sI237
I7019
sI238
I7020
sI239
I7021
sI240
I7022
sI241
I7023
sI242
I7024
sI243
I7025
sI244
I7026
sI245
I7027
sI246
I7028
sI247
I7029
sI248
I7030
sI249
I7031
sI250
I5771
sI251
I7032
sI252
I7033
sI253
I7034
sI254
I7035
ssI243
(dp83
I161
I7036
sI162
I7037
sI163
I7038
sI164
I7039
sI165
I7040
sI166
I7041
sI167
I7042
sI168
I7043
sI169
I7044
sI170
I7045
sI171
I7046
sI172
I7047
sI173
I7048
sI174
I7049
sI175
I7050
sI176
I7051
sI177
I4191
sI178
I7052
sI179
I7053
sI180
I7054
sI181
I7055
sI182
I7056
sI183
I7057
sI184
I7058
sI185
I7059
sI186
I7060
sI187
I7061
sI188
I7062
sI189
I7063
sI190
I7064
sI191
I7065
sI192
I7066
sI193
I7067
sI194
I7068
sI195
I7069
sI196
I7070
sI197
I7071
sI198
I7072
sI199
I7073
sI200
I7074
sI201
I7075
sI202
I7076
sI203
I7077
sI204
I7078
sI205
I7079
sI206
I7080
sI207
I7081
sI208
I7082
sI209
I7083
sI210
I7084
sI211
I7085
sI212
I7086
sI213
I7087
sI214
I7088
sI215
I7089
sI216
I7090
sI217
I7091
sI218
I7092
sI219
I7093
sI220
I7094
sI221
I7095
sI222
I7096
sI223
I7097
sI224
I7098
sI225
I7099
sI226
I7100
sI227
I7101
sI228
I7102
sI229
I7103
sI230
I7104
sI231
I7105
sI232
I7106
sI233
I7107
sI234
I7108
sI235
I7109
sI236
I7110
sI237
I7111
sI238
I7112
sI239
I7113
sI240
I7114
sI241
I7115
sI242
I7116
sI243
I7117
sI244
I7118
sI245
I7119
sI246
I7120
sI247
I7121
sI248
I7122
sI249
I7123
sI250
I7124
sI251
I7125
sI252
I7126
sI253
I7127
sI254
I7128
ssI244
(dp84
I161
I7129
sI162
I7130
sI163
I7131
sI164
I7132
sI165
I7133
sI166
I7134
sI167
I6484
sI168
I7135
sI169
I7136
sI170
I7137
sI171
I7138
sI172
I7139
sI173
I7140
sI174
I7141
sI175
I7142
sI176
I7143
sI177
I7144
sI178
I7145
sI179
I7146
sI180
I7147
sI181
I7148
sI182
I7149
sI183
I7150
sI184
I7151
sI185
I7152
sI186
I7153
sI187
I7154
sI188
I7155
sI189
I7156
sI190
I7157
sI191
I7158
sI192
I7159
sI193
I7160
sI194
I7161
sI195
I7162
sI196
I7163
sI197
I7164
sI198
I7165
sI199
I7166
sI200
I7167
sI201
I7168
sI202
I7169
sI203
I7170
sI204
I7171
sI205
I7172
sI206
I7173
sI207
I7174
sI208
I7175
sI209
I7176
sI210
I7177
sI211
I7178
sI212
I7179
sI213
I7180
sI214
I7181
sI215
I7182
sI216
I7183
sI217
I7184
sI218
I7185
sI219
I7186
sI220
I7187
sI221
I7188
sI222
I7189
sI223
I7190
sI224
I7191
sI225
I7192
sI226
I7193
sI227
I7194
sI228
I7195
sI229
I7196
sI230
I7197
sI231
I7198
sI232
I7199
sI233
I7200
sI234
I7201
sI235
I7202
sI236
I7203
sI237
I7204
sI238
I6684
sI239
I7205
sI240
I7206
sI241
I7207
sI242
I7208
sI243
I7209
sI244
I7210
sI245
I7211
sI246
I7212
sI247
I7213
sI248
I7214
sI249
I7215
sI250
I7216
sI251
I7217
sI252
I7218
sI253
I7219
sI254
I7220
ssI245
(dp85
I161
I7221
sI162
I7222
sI163
I7223
sI164
I7224
sI165
I7225
sI166
I7226
sI167
I7227
sI168
I7228
sI169
I7229
sI170
I7230
sI171
I7231
sI172
I7232
sI173
I7233
sI174
I7234
sI175
I7235
sI176
I7236
sI177
I7237
sI178
I7238
sI179
I7239
sI180
I7240
sI181
I7241
sI182
I7242
sI183
I7243
sI184
I7244
sI185
I7245
sI186
I7246
sI187
I7247
sI188
I7248
sI189
I7249
sI190
I7250
sI191
I7251
sI192
I7252
sI193
I7253
sI194
I7254
sI195
I7255
sI196
I7256
sI197
I7257
sI198
I7258
sI199
I7259
sI200
I7260
sI201
I7261
sI202
I7262
sI203
I7263
sI204
I7264
sI205
I7265
sI206
I7266
sI207
I7267
sI208
I7268
sI209
I7269
sI210
I7270
sI211
I7271
sI212
I7272
sI213
I7273
sI214
I7274
sI215
I7275
sI216
I7276
sI217
I7277
sI218
I7278
sI219
I7279
sI220
I7280
sI221
I7281
sI222
I7282
sI223
I7283
sI224
I7284
sI225
I7285
sI226
I7286
sI227
I7287
sI228
I7288
sI229
I7289
sI230
I7290
sI231
I7291
sI232
I7292
sI233
I7293
sI234
I7294
sI235
I7295
sI236
I7296
sI237
I7297
sI238
I7298
sI239
I7299
sI240
I7300
sI241
I7301
sI242
I7302
sI243
I7303
sI244
I7304
sI245
I7305
sI246
I7306
sI247
I7307
sI248
I7308
sI249
I7309
sI250
I7310
sI251
I7311
sI252
I7312
sI253
I7313
sI254
I7314
ssI246
(dp86
I161
I7315
sI162
I7316
sI163
I7317
sI164
I7318
sI165
I7319
sI166
I7320
sI167
I7321
sI168
I7322
sI169
I7323
sI170
I7324
sI171
I7325
sI172
I7326
sI173
I7327
sI174
I7328
sI175
I7329
sI176
I7330
sI177
I7331
sI178
I7332
sI179
I7333
sI180
I7334
sI181
I7335
sI182
I7336
sI183
I7337
sI184
I7338
sI185
I7339
sI186
I7340
sI187
I7341
sI188
I7342
sI189
I7343
sI190
I7344
sI191
I7345
sI192
I7346
sI193
I7347
sI194
I7348
sI195
I7349
sI196
I7350
sI197
I7351
sI198
I7352
sI199
I7353
sI200
I7354
sI201
I7355
sI202
I7356
sI203
I7357
sI204
I7358
sI205
I7359
sI206
I7360
sI207
I7361
sI208
I7362
sI209
I7363
sI210
I7364
sI211
I7365
sI212
I7366
sI213
I7367
sI214
I7368
sI215
I7369
sI216
I7370
sI217
I7371
sI218
I7372
sI219
I7373
sI220
I7374
sI221
I7375
sI222
I7376
sI223
I7377
sI224
I7378
sI225
I7379
sI226
I7380
sI227
I7381
sI228
I7382
sI229
I7383
sI230
I7384
sI231
I7385
sI232
I7386
sI233
I7387
sI234
I7388
sI235
I7389
sI236
I7390
sI237
I7391
sI238
I7392
sI239
I7393
sI240
I7394
sI241
I7395
sI242
I7396
sI243
I7397
sI244
I4279
sI245
I7398
sI246
I7139
sI247
I7399
sI248
I7400
sI249
I7401
sI250
I7402
sI251
I7403
sI252
I7404
sI253
I7405
sI254
I7406
ssI247
(dp87
I161
I7407
sI162
I7408
sI163
I7409
sI164
I7410
sI165
I7411
sI166
I7412
sI167
I7413
sI168
I7414
sI169
I7415
sI170
I7416
sI171
I7417
sI172
I7418
sI173
I7419
sI174
I7420
sI175
I7421
sI176
I7422
sI177
I7423
sI178
I7424
sI179
I7425
sI180
I7426
sI181
I7427
sI182
I7428
sI183
I7429
sI184
I4247
sI185
I7430
sI186
I7431
sI187
I7432
sI188
I7433
sI189
I7434
sI190
I7435
sI191
I7436
sI192
I7437
sI193
I7438
sI194
I7439
sI195
I7440
sI196
I7441
sI197
I7442
sI198
I7443
sI199
I7444
sI200
I4266
sI201
I7445
sI202
I7446
sI203
I7447
sI204
I7448
sI205
I7449
sI206
I7450
sI207
I7451
sI208
I7452
sI209
I7453
sI210
I7454
sI211
I4340
sI212
I7455
sI213
I7456
sI214
I7457
sI215
I7458
sI216
I7459
sI217
I7460
sI218
I7461
sI219
I7462
sI220
I7463
sI221
I7464
sI222
I7465
sI223
I7466
sI224
I7467
sI225
I7468
sI226
I7469
sI227
I7470
sI228
I7471
sI229
I7472
sI230
I7473
sI231
I7474
sI232
I7475
sI233
I7476
sI234
I7477
sI235
I7478
sI236
I7479
sI237
I7480
sI238
I7481
sI239
I7482
sI240
I7483
sI241
I7484
sI242
I7485
sI243
I7486
sI244
I7487
sI245
I7488
sI246
I7489
sI247
I7490
sI248
I7491
sI249
I7492
sI250
I7493
sI251
I7494
sI252
I7495
sI253
I7496
sI254
I7497
ssI248
(dp88
I161
I7498
sI162
I7499
sI163
I7500
sI164
I7501
sI165
I7502
sI166
I7503
sI167
I7504
sI168
I7505
sI169
I7506
sI170
I7507
sI171
I7508
sI172
I7509
sI173
I7510
sI174
I7511
sI175
I7512
sI176
I7513
sI177
I7514
sI178
I7515
sI179
I7516
sI180
I7517
sI181
I7518
sI182
I7519
sI183
I7520
sI184
I7521
sI185
I7522
sI186
I7523
sI187
I7524
sI188
I7525
sI189
I7526
sI190
I7527
sI191
I7528
sI192
I7529
sI193
I7530
sI194
I7531
sI195
I7532
sI196
I7533
sI197
I7534
sI198
I7535
sI199
I7536
sI200
I7537
sI201
I7538
sI202
I7539
sI203
I7540
sI204
I7541
sI205
I7542
sI206
I7543
sI207
I7544
sI208
I7545
sI209
I7546
sI210
I7547
sI211
I7548
sI212
I7549
sI213
I7550
sI214
I7551
sI215
I7552
sI216
I7553
sI217
I7554
sI218
I7555
sI219
I7572
sI220
I7556
sI221
I7557
sI222
I7558
sI223
I7559
sI224
I7560
sI225
I7561
sI226
I7562
sI227
I7563
sI228
I7564
sI229
I7565
sI230
I7566
sI231
I7567
sI232
I7568
sI233
I7569
sI234
I7570
sI235
I7571
sI236
I7572
sI237
I7573
sI238
I7574
sI239
I7575
sI240
I5088
sI241
I7576
sI242
I7577
sI243
I7578
sI244
I7579
sI245
I7580
sI246
I7581
sI247
I7582
sI248
I7583
sI249
I7584
sI250
I7585
sI251
I7586
sI252
I7587
sI253
I7588
sI254
I7589
ssI249
(dp89
I161
I7590
sI162
I7591
sI163
I7592
sI164
I7593
sI165
I7594
sI166
I7595
sI167
I7596
sI168
I7597
sI169
I7598
sI170
I7599
sI171
I7600
sI172
I7601
sI173
I7602
sI174
I7603
sI175
I7604
sI176
I7605
sI177
I7606
sI178
I7607
sI179
I7608
sI180
I7609
sI181
I7610
sI182
I7611
sI183
I7612
sI184
I7613
sI185
I7614
sI186
I7615
sI187
I7616
sI188
I7617
sI189
I7618
sI190
I7619
sI191
I7620
sI192
I7621
sI193
I7622
sI194
I7623
sI195
I7624
sI196
I7625
sI197
I7626
sI198
I7627
sI199
I7628
sI200
I7629
sI201
I7630
sI202
I7631
sI203
I7632
sI204
I7633
sI205
I7634
sI206
I7635
sI207
I7636
sI208
I7637
sI209
I7638
sI210
I7639
sI211
I7640
sI212
I7641
sI213
I7642
sI214
I7643
sI215
I7644
sI216
I7645
sI217
I7646
sI218
I7647
sI219
I7648
sI220
I7649
sI221
I7650
sI222
I7651
sI223
I7652
sI224
I7653
sI225
I7654
sI226
I7655
sI227
I7656
sI228
I7657
sI229
I7658
sI230
I7659
sI231
I7660
sI232
I7661
sI233
I7662
sI234
I7663
sI235
I7664
sI236
I7665
sI237
I7666
sI238
I7667
sI239
I7668
sI240
I7669
sI241
I7670
sI242
I7671
sI243
I7672
sI244
I7673
sI245
I7674
sI246
I7675
sI247
I7676
sI248
I7677
sI249
I7678
sI250
I7679
sI251
I7680
sI252
I7681
sI253
I7682
sI254
I7683
ssI250
(dp90
I161
I7709
sI162
I3558
sI163
I7684
sI164
I7685
sI165
I7686
sI166
I7687
sI167
I7688
sI168
I7689
sI169
I7690
sI170
I7691
sI171
I7692
sI172
I7693
sI173
I7694
sI174
I7695
sI175
I7696
sI176
I7697
sI177
I7698
sI178
I7699
sI179
I7700
sI180
I7701
sI181
I7702
sI182
I7703
sI183
I7704
sI184
I7705
sI185
I7706
sI186
I7707
sI187
I7708
sI188
I7709
sI189
I7710
sI190
I7711
sI191
I7712
sI192
I7713
sI193
I7714
sI194
I7715
sI195
I7716
sI196
I7717
sI197
I7718
sI198
I7719
sI199
I7720
sI200
I7721
sI201
I7722
sI202
I7723
sI203
I7724
sI204
I7725
sI205
I7726
sI206
I7727
sI207
I7728
sI208
I7729
sI209
I7730
sI210
I7731
sI211
I7732
sI212
I7733
sI213
I7734
sI214
I7735
sI215
I7736
sI216
I7737
sI217
I7738
sI218
I7739
sI219
I7740
sI220
I7741
sI221
I7742
sI222
I7743
sI223
I7744
sI224
I7745
sI225
I7746
sI226
I7747
sI227
I7748
sI228
I7749
sI229
I7750
sI230
I3644
sI231
I7751
sI232
I7752
sI233
I7753
sI234
I7754
sI235
I7755
sI236
I7756
sI237
I7757
sI238
I7758
sI239
I7759
sI240
I7760
sI241
I7761
sI242
I7762
sI243
I7763
sI244
I7764
sI245
I7765
sI246
I7766
sI247
I7767
sI248
I7768
sI249
I7769
sI250
I7770
sI251
I7771
sI252
I7772
sI253
I7773
sI254
I7774
ssI251
(dp91
I161
I7775
sI162
I7776
sI163
I7777
sI164
I7778
sI165
I7779
sI166
I7780
sI167
I7781
sI168
I7782
sI169
I7783
sI170
I7784
sI171
I7785
sI172
I7786
sI173
I7787
sI174
I7788
sI175
I7789
sI176
I7790
sI177
I7791
sI178
I7792
sI179
I7793
sI180
I7794
sI181
I7795
sI182
I7796
sI183
I7797
sI184
I7798
sI185
I7799
sI186
I7800
sI187
I7801
sI188
I7802
sI189
I7803
sI190
I7804
sI191
I7805
sI192
I7806
sI193
I7807
sI194
I7808
sI195
I7809
sI196
I7810
sI197
I7811
sI198
I7812
sI199
I7813
sI200
I7814
sI201
I7815
sI202
I7816
sI203
I7817
sI204
I7818
sI205
I7819
sI206
I7820
sI207
I7821
sI208
I7822
sI209
I7823
sI210
I7824
sI211
I7825
sI212
I7826
sI213
I7827
sI214
I7828
sI215
I7829
sI216
I7830
sI217
I7831
sI218
I7832
sI219
I7833
sI220
I7834
sI221
I7835
sI222
I7836
sI223
I7837
sI224
I7838
sI225
I7839
sI226
I7840
sI227
I7841
sI228
I7842
sI229
I7843
sI230
I7844
sI231
I7845
sI232
I7846
sI233
I7847
sI234
I7848
sI235
I7849
sI236
I7850
sI237
I7851
sI238
I7852
sI239
I7853
sI240
I7854
sI241
I7855
sI242
I7856
sI243
I7857
sI244
I7858
sI245
I7859
sI246
I7860
sI247
I7861
sI248
I7862
sI249
I7863
sI250
I7864
sI251
I7865
sI252
I7866
sI253
I7867
sI254
I7868
ssI252
(dp92
I161
I7869
sI162
I7870
sI163
I7871
sI164
I7872
sI165
I7873
sI166
I7874
sI167
I7875
sI168
I7876
sI169
I3815
sI170
I7877
sI171
I7878
sI172
I7879
sI173
I7880
sI174
I7881
sI175
I7882
sI176
I7883
sI177
I7884
sI178
I7885
sI179
I7886
sI180
I7887
sI181
I7888
sI182
I7889
sI183
I7890
sI184
I7891
sI185
I7892
sI186
I7893
sI187
I7894
sI188
I7895
sI189
I7896
sI190
I7897
sI191
I7898
sI192
I7899
sI193
I7900
sI194
I7901
sI195
I7902
sI196
I7903
sI197
I7904
sI198
I7905
sI199
I7906
sI200
I7907
sI201
I7908
sI202
I7909
sI203
I7910
sI204
I7911
sI205
I7912
sI206
I7913
sI207
I7914
sI208
I7915
sI209
I7916
sI210
I7917
sI211
I7918
sI212
I7919
sI213
I7920
sI214
I7921
sI215
I7922
sI216
I7923
sI217
I7924
sI218
I7925
sI219
I7926
sI220
I7927
sI221
I7928
sI222
I7929
sI223
I7930
sI224
I7931
sI225
I7932
sI226
I7933
sI227
I7934
sI228
I7935
sI229
I7936
sI230
I7937
sI231
I7938
sI232
I7939
sI233
I7940
sI234
I7941
sI235
I7942
sI236
I7943
sI237
I7944
sI238
I7945
sI239
I7946
sI240
I7947
sI241
I7948
sI242
I7949
sI243
I7950
sI244
I7951
sI245
I7952
sI246
I7953
sI247
I7954
sI248
I7955
sI249
I7956
sI250
I7957
sI251
I7958
sI252
I7959
sI253
I7960
sI254
I7961
ssI253
(dp93
I161
I7962
sI162
I7963
sI163
I7964
sI164
I7965
sI165
I7966
sI166
I7967
sI167
I7968
sI168
I7969
sI169
I7970
sI170
I7971
sI171
I7972
sI172
I7973
sI173
I7974
sI174
I7975
sI175
I7976
sI176
I7977
sI177
I7978
sI178
I7979
sI179
I7980
sI180
I7981
sI181
I7982
sI182
I7983
sI183
I7984
sI184
I7985
sI185
I7986
sI186
I7987
sI187
I7988
sI188
I7989
sI189
I7990
sI190
I7991
sI191
I7992
sI192
I7993
sI193
I7994
sI194
I7995
sI195
I7996
sI196
I7997
sI197
I7998
sI198
I7999
sI199
I8000
sI200
I8001
sI201
I8002
sI202
I8003
sI203
I8004
sI204
I8005
sI205
I8006
sI206
I8007
sI207
I8008
sI208
I8009
sI209
I8010
sI210
I8011
sI211
I8012
sI212
I8013
sI213
I8014
sI214
I8015
sI215
I8016
sI216
I8017
sI217
I8018
sI218
I8019
sI219
I8020
sI220
I8021
sI221
I8022
sI222
I8023
sI223
I8024
sI224
I8025
sI225
I8026
sI226
I8027
sI227
I8028
sI228
I8029
sI229
I8030
sI230
I8031
sI231
I8032
sI232
I8033
sI233
I8034
sI234
I8035
sI235
I8036
sI236
I8037
sI237
I8038
sI238
I8039
sI239
I8040
sI240
I8041
sI241
I8042
sI242
I8043
sI243
I8044
sI244
I8045
sI245
I8046
sI246
I8047
sI247
I8048
sI248
I8049
sI249
I8050
sI250
I8051
sI251
I8052
sI252
I8053
sI253
I8054
sI254
I8055
sss.