(dp1
S'IS_VERTICAL'
p2
I01
sS'CODE2CID'
p3
(dp4
I32
I231
sI33
I232
sI34
I233
sI35
I234
sI36
I235
sI37
I236
sI38
I237
sI39
I238
sI40
I239
sI41
I240
sI42
I241
sI43
I242
sI44
I243
sI45
I244
sI46
I245
sI47
I246
sI48
I247
sI49
I248
sI50
I249
sI51
I250
sI52
I251
sI53
I252
sI54
I253
sI55
I254
sI56
I255
sI57
I256
sI58
I257
sI59
I258
sI60
I259
sI61
I260
sI62
I261
sI63
I262
sI64
I263
sI65
I264
sI66
I265
sI67
I266
sI68
I267
sI69
I268
sI70
I269
sI71
I270
sI72
I271
sI73
I272
sI74
I273
sI75
I274
sI76
I275
sI77
I276
sI78
I277
sI79
I278
sI80
I279
sI81
I280
sI82
I281
sI83
I282
sI84
I283
sI85
I284
sI86
I285
sI87
I286
sI88
I287
sI89
I288
sI90
I289
sI91
I290
sI92
I291
sI93
I292
sI94
I293
sI95
I294
sI96
I295
sI97
I296
sI98
I297
sI99
I298
sI100
I299
sI101
I300
sI102
I301
sI103
I302
sI104
I303
sI105
I304
sI106
I305
sI107
I306
sI108
I307
sI109
I308
sI110
I309
sI111
I310
sI112
I311
sI113
I312
sI114
I313
sI115
I314
sI116
I315
sI117
I316
sI118
I317
sI119
I318
sI120
I319
sI121
I320
sI122
I321
sI123
I322
sI124
I323
sI125
I324
sI126
I325
ss.