(dp1
S'IS_VERTICAL'
p2
I01
sS'CODE2CID'
p3
(dp4
I1
I8056
sI2
I8058
sI3
I8191
sI4
I8196
sI5
I8061
sI6
I8062
sI7
I8063
sI8
I8064
sI9
I8065
sI10
I8066
sI11
I8067
sI12
I8068
sI13
I8069
sI14
I8070
sI15
I8071
sI16
I8072
sI17
I8073
sI18
I8074
sI19
I8075
sI20
I8076
sI21
I8077
sI22
I8078
sI23
I8079
sI24
I8080
sI25
I8092
sI26
I8093
sI27
I8094
sI28
I8095
sI29
I8096
sI30
I8097
sI31
I8098
sI32
I8099
sI33
I8100
sI34
I8101
sI35
I8186
sI36
I8020
sI37
I8021
sI38
I8187
sI39
I8022
sI40
I8023
sI41
I8188
sI42
I8037
sI43
I8024
sI44
I8025
sI45
I8026
sI46
I8189
sI47
I8190
sI48
I8192
sI49
I8193
sI50
I7899
sI51
I7900
sI52
I7894
sI53
I8194
sI54
I8035
sI55
I8027
sI56
I8028
sI57
I8029
sI58
I8195
sI59
I8112
sI60
I8113
sI61
I8114
sI62
I8115
sI63
I8116
sI64
I8117
sI65
I8118
sI66
I8119
sI67
I8120
sI68
I8121
sI69
I8122
sI70
I8123
sI71
I8124
sI72
I8125
sI73
I8126
sI74
I8127
sI75
I8128
sI76
I8129
sI77
I8130
sI78
I8131
sI79
I8132
sI80
I8133
sI81
I8134
sI82
I8135
sI83
I8136
sI84
I8137
sI85
I8197
sI86
I8198
sI87
I8199
sI88
I8200
sI89
I8201
sI90
I8202
sI91
I8203
sI92
I8204
sI93
I8205
sI94
I8151
sI97
I8206
sI98
I8207
sI99
I8208
sI100
I8209
sI101
I8210
sI102
I8211
sI103
I8212
sI104
I8213
sI105
I8214
sI106
I8215
sI107
I8216
sI108
I8217
sI109
I8218
sI110
I8219
sI111
I8220
sI112
I8221
sI113
I8222
sI114
I8057
sI115
I8223
sI116
I8224
sI117
I8225
sI118
I8226
sI119
I8227
ss.